

Microchip MPLAB XC8 Assembler V2.10 build 88905656 
                                                                                               Tue Nov 26 18:57:59 2019

Microchip MPLAB XC8 C Compiler v2.10 (Free license) build 20190730164152 Og9 
     1                           	processor	12LF1552
     2                           	opt	pw 120
     3                           	opt	flic
     4                           	psect	idataBANK0,global,class=CODE,delta=2
     5                           	psect	stringtext1,global,class=STRCODE,delta=2
     6                           	psect	cinit,global,class=CODE,merge=1,delta=2
     7                           	psect	bssBANK0,global,class=BANK0,space=1,delta=1
     8                           	psect	dataBANK0,global,class=BANK0,space=1,delta=1
     9                           	psect	inittext,global,class=CODE,delta=2
    10                           	psect	clrtext,global,class=CODE,delta=2
    11                           	psect	cstackCOMMON,global,class=COMMON,space=1,delta=1
    12                           	psect	cstackBANK0,global,class=BANK0,space=1,delta=1
    13                           	psect	maintext,global,class=CODE,merge=1,split=1,delta=2
    14                           	psect	text1,local,class=CODE,merge=1,delta=2
    15                           	psect	text2,local,class=CODE,merge=1,delta=2
    16                           	psect	text3,local,class=CODE,merge=1,delta=2
    17                           	psect	text4,local,class=CODE,merge=1,delta=2
    18                           	psect	text5,local,class=CODE,merge=1,delta=2
    19                           	psect	text6,local,class=CODE,merge=1,delta=2
    20                           	psect	text7,local,class=CODE,merge=1,delta=2
    21                           	psect	text8,local,class=CODE,merge=1,delta=2
    22                           	psect	text9,local,class=CODE,merge=1,delta=2
    23                           	psect	text10,local,class=CODE,merge=1,delta=2,group=2
    24                           	psect	text11,local,class=CODE,merge=1,delta=2
    25                           	psect	text12,local,class=CODE,merge=1,delta=2
    26                           	psect	text13,local,class=CODE,merge=1,delta=2
    27                           	psect	text14,local,class=CODE,merge=1,delta=2
    28                           	psect	text15,local,class=CODE,merge=1,delta=2
    29                           	psect	text16,local,class=CODE,merge=1,delta=2
    30                           	psect	text17,local,class=CODE,merge=1,inline,delta=2
    31                           	psect	text18,local,class=CODE,merge=1,delta=2
    32                           	psect	text19,local,class=CODE,merge=1,delta=2
    33                           	psect	text20,local,class=CODE,merge=1,inline,delta=2
    34                           	psect	text21,local,class=CODE,merge=1,delta=2
    35                           	psect	text22,local,class=CODE,merge=1,delta=2
    36                           	psect	text23,local,class=CODE,merge=1,delta=2
    37                           	psect	text24,local,class=CODE,merge=1,delta=2,group=2
    38                           	psect	text25,local,class=CODE,merge=1,inline,delta=2
    39                           	psect	text26,local,class=CODE,merge=1,inline,delta=2
    40                           	psect	text27,local,class=CODE,merge=1,delta=2
    41                           	psect	text28,local,class=CODE,merge=1,delta=2
    42                           	psect	text29,local,class=CODE,merge=1,delta=2
    43                           	psect	text30,local,class=CODE,merge=1,delta=2
    44                           	psect	text31,local,class=CODE,merge=1,delta=2
    45                           	psect	text32,local,class=CODE,merge=1,delta=2
    46                           	psect	text33,local,class=CODE,merge=1,delta=2
    47                           	psect	text34,local,class=CODE,merge=1,delta=2
    48                           	psect	text35,local,class=CODE,merge=1,delta=2
    49                           	psect	text36,local,class=CODE,merge=1,delta=2
    50                           	psect	text37,local,class=CODE,merge=1,delta=2
    51                           	psect	text38,local,class=CODE,merge=1,delta=2
    52                           	psect	text39,local,class=CODE,merge=1,delta=2
    53                           	psect	text40,local,class=CODE,merge=1,delta=2
    54                           	psect	text41,local,class=CODE,merge=1,delta=2
    55                           	psect	text42,local,class=CODE,merge=1,delta=2
    56                           	psect	text43,local,class=CODE,merge=1,delta=2
    57                           	psect	text44,local,class=CODE,merge=1,delta=2
    58                           	psect	text45,local,class=CODE,merge=1,delta=2
    59                           	psect	text46,local,class=CODE,merge=1,delta=2
    60                           	psect	text47,local,class=CODE,merge=1,delta=2
    61                           	psect	text48,local,class=CODE,merge=1,delta=2
    62                           	psect	text49,local,class=CODE,merge=1,delta=2
    63                           	psect	text50,local,class=CODE,merge=1,delta=2
    64                           	psect	text51,local,class=CODE,merge=1,delta=2
    65                           	psect	text52,local,class=CODE,merge=1,delta=2
    66                           	psect	text53,local,class=CODE,merge=1,delta=2
    67                           	psect	text54,local,class=CODE,merge=1,delta=2
    68                           	psect	text55,local,class=CODE,merge=1,delta=2,group=1
    69                           	psect	text56,local,class=CODE,merge=1,delta=2
    70                           	psect	text57,local,class=CODE,merge=1,delta=2
    71                           	psect	text58,local,class=CODE,merge=1,delta=2
    72                           	dabs	1,0x7E,2
    73  0000                     
    74                           ; Version 2.10
    75                           ; Generated 31/07/2019 GMT
    76                           ; 
    77                           ; Copyright © 2019, Microchip Technology Inc. and its subsidiaries ("Microchip")
    78                           ; All rights reserved.
    79                           ; 
    80                           ; This software is developed by Microchip Technology Inc. and its subsidiaries ("Microch
      +                          ip").
    81                           ; 
    82                           ; Redistribution and use in source and binary forms, with or without modification, are
    83                           ; permitted provided that the following conditions are met:
    84                           ; 
    85                           ;     1. Redistributions of source code must retain the above copyright notice, this lis
      +                          t of
    86                           ;        conditions and the following disclaimer.
    87                           ; 
    88                           ;     2. Redistributions in binary form must reproduce the above copyright notice, this 
      +                          list
    89                           ;        of conditions and the following disclaimer in the documentation and/or other
    90                           ;        materials provided with the distribution.
    91                           ; 
    92                           ;     3. Microchip's name may not be used to endorse or promote products derived from th
      +                          is
    93                           ;        software without specific prior written permission.
    94                           ; 
    95                           ; THIS SOFTWARE IS PROVIDED BY MICROCHIP "AS IS" AND ANY EXPRESS OR IMPLIED WARRANTIES,
    96                           ; INCLUDING, BUT NOT LIMITED TO, THE IMPLIED WARRANTIES OF MERCHANTABILITY AND FITNESS F
      +                          OR
    97                           ; PURPOSE ARE DISCLAIMED.  IN NO EVENT SHALL MICROCHIP BE LIABLE FOR ANY DIRECT, INDIREC
      +                          T,
    98                           ; INCIDENTAL, SPECIAL, EXEMPLARY, OR CONSEQUENTIAL DAMAGES (INCLUDING BUT NOT LIMITED TO
    99                           ; PROCUREMENT OF SUBSTITUTE GOODS OR SERVICES; LOSS OF USE, DATA OR PROFITS; OR BUSINESS
   100                           ; INTERRUPTION) HOWSOEVER CAUSED AND ON ANY THEORY OF LIABILITY, WHETHER IN CONTRACT, ST
      +                          RICT
   101                           ; LIABILITY, OR TORT (INCLUDING NEGLIGENCE OR OTHERWISE) ARISING IN ANY WAY OUT OF THE U
      +                          SE OF
   102                           ; THIS SOFTWARE, EVEN IF ADVISED OF THE POSSIBILITY OF SUCH DAMAGE.
   103                           ; 
   104                           ; 
   105                           ; Code-generator required, PIC12LF1552 Definitions
   106                           ; 
   107                           ; SFR Addresses
   108  0000                     	;# 
   109  0001                     	;# 
   110  0002                     	;# 
   111  0003                     	;# 
   112  0004                     	;# 
   113  0005                     	;# 
   114  0006                     	;# 
   115  0007                     	;# 
   116  0008                     	;# 
   117  0009                     	;# 
   118  000A                     	;# 
   119  000B                     	;# 
   120  000C                     	;# 
   121  0011                     	;# 
   122  0012                     	;# 
   123  0015                     	;# 
   124  008C                     	;# 
   125  0091                     	;# 
   126  0092                     	;# 
   127  0095                     	;# 
   128  0096                     	;# 
   129  0097                     	;# 
   130  0099                     	;# 
   131  009A                     	;# 
   132  009B                     	;# 
   133  009B                     	;# 
   134  009C                     	;# 
   135  009D                     	;# 
   136  009E                     	;# 
   137  009F                     	;# 
   138  010C                     	;# 
   139  0116                     	;# 
   140  0117                     	;# 
   141  011D                     	;# 
   142  011D                     	;# 
   143  018C                     	;# 
   144  0191                     	;# 
   145  0191                     	;# 
   146  0192                     	;# 
   147  0193                     	;# 
   148  0193                     	;# 
   149  0194                     	;# 
   150  0195                     	;# 
   151  0196                     	;# 
   152  020C                     	;# 
   153  0211                     	;# 
   154  0211                     	;# 
   155  0212                     	;# 
   156  0212                     	;# 
   157  0213                     	;# 
   158  0213                     	;# 
   159  0214                     	;# 
   160  0214                     	;# 
   161  0215                     	;# 
   162  0215                     	;# 
   163  0215                     	;# 
   164  0216                     	;# 
   165  0216                     	;# 
   166  0217                     	;# 
   167  0217                     	;# 
   168  0391                     	;# 
   169  0392                     	;# 
   170  0393                     	;# 
   171  0FE4                     	;# 
   172  0FE5                     	;# 
   173  0FE6                     	;# 
   174  0FE7                     	;# 
   175  0FE8                     	;# 
   176  0FE9                     	;# 
   177  0FEA                     	;# 
   178  0FEB                     	;# 
   179  0FED                     	;# 
   180  0FEE                     	;# 
   181  0FEF                     	;# 
   182  0711                     	;# 
   183  0712                     	;# 
   184  0713                     	;# 
   185  0714                     	;# 
   186  0715                     	;# 
   187  0716                     	;# 
   188  0717                     	;# 
   189  0718                     	;# 
   190  0719                     	;# 
   191  071A                     	;# 
   192  071A                     	;# 
   193  071A                     	;# 
   194  071A                     	;# 
   195  071B                     	;# 
   196  071C                     	;# 
   197  071C                     	;# 
   198  071C                     	;# 
   199  071C                     	;# 
   200  071D                     	;# 
   201  0000                     	;# 
   202  0001                     	;# 
   203  0002                     	;# 
   204  0003                     	;# 
   205  0004                     	;# 
   206  0005                     	;# 
   207  0006                     	;# 
   208  0007                     	;# 
   209  0008                     	;# 
   210  0009                     	;# 
   211  000A                     	;# 
   212  000B                     	;# 
   213  000C                     	;# 
   214  0011                     	;# 
   215  0012                     	;# 
   216  0015                     	;# 
   217  008C                     	;# 
   218  0091                     	;# 
   219  0092                     	;# 
   220  0095                     	;# 
   221  0096                     	;# 
   222  0097                     	;# 
   223  0099                     	;# 
   224  009A                     	;# 
   225  009B                     	;# 
   226  009B                     	;# 
   227  009C                     	;# 
   228  009D                     	;# 
   229  009E                     	;# 
   230  009F                     	;# 
   231  010C                     	;# 
   232  0116                     	;# 
   233  0117                     	;# 
   234  011D                     	;# 
   235  011D                     	;# 
   236  018C                     	;# 
   237  0191                     	;# 
   238  0191                     	;# 
   239  0192                     	;# 
   240  0193                     	;# 
   241  0193                     	;# 
   242  0194                     	;# 
   243  0195                     	;# 
   244  0196                     	;# 
   245  020C                     	;# 
   246  0211                     	;# 
   247  0211                     	;# 
   248  0212                     	;# 
   249  0212                     	;# 
   250  0213                     	;# 
   251  0213                     	;# 
   252  0214                     	;# 
   253  0214                     	;# 
   254  0215                     	;# 
   255  0215                     	;# 
   256  0215                     	;# 
   257  0216                     	;# 
   258  0216                     	;# 
   259  0217                     	;# 
   260  0217                     	;# 
   261  0391                     	;# 
   262  0392                     	;# 
   263  0393                     	;# 
   264  0FE4                     	;# 
   265  0FE5                     	;# 
   266  0FE6                     	;# 
   267  0FE7                     	;# 
   268  0FE8                     	;# 
   269  0FE9                     	;# 
   270  0FEA                     	;# 
   271  0FEB                     	;# 
   272  0FED                     	;# 
   273  0FEE                     	;# 
   274  0FEF                     	;# 
   275  0711                     	;# 
   276  0712                     	;# 
   277  0713                     	;# 
   278  0714                     	;# 
   279  0715                     	;# 
   280  0716                     	;# 
   281  0717                     	;# 
   282  0718                     	;# 
   283  0719                     	;# 
   284  071A                     	;# 
   285  071A                     	;# 
   286  071A                     	;# 
   287  071A                     	;# 
   288  071B                     	;# 
   289  071C                     	;# 
   290  071C                     	;# 
   291  071C                     	;# 
   292  071C                     	;# 
   293  071D                     	;# 
   294  0000                     	;# 
   295  0001                     	;# 
   296  0002                     	;# 
   297  0003                     	;# 
   298  0004                     	;# 
   299  0005                     	;# 
   300  0006                     	;# 
   301  0007                     	;# 
   302  0008                     	;# 
   303  0009                     	;# 
   304  000A                     	;# 
   305  000B                     	;# 
   306  000C                     	;# 
   307  0011                     	;# 
   308  0012                     	;# 
   309  0015                     	;# 
   310  008C                     	;# 
   311  0091                     	;# 
   312  0092                     	;# 
   313  0095                     	;# 
   314  0096                     	;# 
   315  0097                     	;# 
   316  0099                     	;# 
   317  009A                     	;# 
   318  009B                     	;# 
   319  009B                     	;# 
   320  009C                     	;# 
   321  009D                     	;# 
   322  009E                     	;# 
   323  009F                     	;# 
   324  010C                     	;# 
   325  0116                     	;# 
   326  0117                     	;# 
   327  011D                     	;# 
   328  011D                     	;# 
   329  018C                     	;# 
   330  0191                     	;# 
   331  0191                     	;# 
   332  0192                     	;# 
   333  0193                     	;# 
   334  0193                     	;# 
   335  0194                     	;# 
   336  0195                     	;# 
   337  0196                     	;# 
   338  020C                     	;# 
   339  0211                     	;# 
   340  0211                     	;# 
   341  0212                     	;# 
   342  0212                     	;# 
   343  0213                     	;# 
   344  0213                     	;# 
   345  0214                     	;# 
   346  0214                     	;# 
   347  0215                     	;# 
   348  0215                     	;# 
   349  0215                     	;# 
   350  0216                     	;# 
   351  0216                     	;# 
   352  0217                     	;# 
   353  0217                     	;# 
   354  0391                     	;# 
   355  0392                     	;# 
   356  0393                     	;# 
   357  0FE4                     	;# 
   358  0FE5                     	;# 
   359  0FE6                     	;# 
   360  0FE7                     	;# 
   361  0FE8                     	;# 
   362  0FE9                     	;# 
   363  0FEA                     	;# 
   364  0FEB                     	;# 
   365  0FED                     	;# 
   366  0FEE                     	;# 
   367  0FEF                     	;# 
   368  0711                     	;# 
   369  0712                     	;# 
   370  0713                     	;# 
   371  0714                     	;# 
   372  0715                     	;# 
   373  0716                     	;# 
   374  0717                     	;# 
   375  0718                     	;# 
   376  0719                     	;# 
   377  071A                     	;# 
   378  071A                     	;# 
   379  071A                     	;# 
   380  071A                     	;# 
   381  071B                     	;# 
   382  071C                     	;# 
   383  071C                     	;# 
   384  071C                     	;# 
   385  071C                     	;# 
   386  071D                     	;# 
   387  0000                     	;# 
   388  0001                     	;# 
   389  0002                     	;# 
   390  0003                     	;# 
   391  0004                     	;# 
   392  0005                     	;# 
   393  0006                     	;# 
   394  0007                     	;# 
   395  0008                     	;# 
   396  0009                     	;# 
   397  000A                     	;# 
   398  000B                     	;# 
   399  000C                     	;# 
   400  0011                     	;# 
   401  0012                     	;# 
   402  0015                     	;# 
   403  008C                     	;# 
   404  0091                     	;# 
   405  0092                     	;# 
   406  0095                     	;# 
   407  0096                     	;# 
   408  0097                     	;# 
   409  0099                     	;# 
   410  009A                     	;# 
   411  009B                     	;# 
   412  009B                     	;# 
   413  009C                     	;# 
   414  009D                     	;# 
   415  009E                     	;# 
   416  009F                     	;# 
   417  010C                     	;# 
   418  0116                     	;# 
   419  0117                     	;# 
   420  011D                     	;# 
   421  011D                     	;# 
   422  018C                     	;# 
   423  0191                     	;# 
   424  0191                     	;# 
   425  0192                     	;# 
   426  0193                     	;# 
   427  0193                     	;# 
   428  0194                     	;# 
   429  0195                     	;# 
   430  0196                     	;# 
   431  020C                     	;# 
   432  0211                     	;# 
   433  0211                     	;# 
   434  0212                     	;# 
   435  0212                     	;# 
   436  0213                     	;# 
   437  0213                     	;# 
   438  0214                     	;# 
   439  0214                     	;# 
   440  0215                     	;# 
   441  0215                     	;# 
   442  0215                     	;# 
   443  0216                     	;# 
   444  0216                     	;# 
   445  0217                     	;# 
   446  0217                     	;# 
   447  0391                     	;# 
   448  0392                     	;# 
   449  0393                     	;# 
   450  0FE4                     	;# 
   451  0FE5                     	;# 
   452  0FE6                     	;# 
   453  0FE7                     	;# 
   454  0FE8                     	;# 
   455  0FE9                     	;# 
   456  0FEA                     	;# 
   457  0FEB                     	;# 
   458  0FED                     	;# 
   459  0FEE                     	;# 
   460  0FEF                     	;# 
   461  0711                     	;# 
   462  0712                     	;# 
   463  0713                     	;# 
   464  0714                     	;# 
   465  0715                     	;# 
   466  0716                     	;# 
   467  0717                     	;# 
   468  0718                     	;# 
   469  0719                     	;# 
   470  071A                     	;# 
   471  071A                     	;# 
   472  071A                     	;# 
   473  071A                     	;# 
   474  071B                     	;# 
   475  071C                     	;# 
   476  071C                     	;# 
   477  071C                     	;# 
   478  071C                     	;# 
   479  071D                     	;# 
   480  0000                     	;# 
   481  0001                     	;# 
   482  0002                     	;# 
   483  0003                     	;# 
   484  0004                     	;# 
   485  0005                     	;# 
   486  0006                     	;# 
   487  0007                     	;# 
   488  0008                     	;# 
   489  0009                     	;# 
   490  000A                     	;# 
   491  000B                     	;# 
   492  000C                     	;# 
   493  0011                     	;# 
   494  0012                     	;# 
   495  0015                     	;# 
   496  008C                     	;# 
   497  0091                     	;# 
   498  0092                     	;# 
   499  0095                     	;# 
   500  0096                     	;# 
   501  0097                     	;# 
   502  0099                     	;# 
   503  009A                     	;# 
   504  009B                     	;# 
   505  009B                     	;# 
   506  009C                     	;# 
   507  009D                     	;# 
   508  009E                     	;# 
   509  009F                     	;# 
   510  010C                     	;# 
   511  0116                     	;# 
   512  0117                     	;# 
   513  011D                     	;# 
   514  011D                     	;# 
   515  018C                     	;# 
   516  0191                     	;# 
   517  0191                     	;# 
   518  0192                     	;# 
   519  0193                     	;# 
   520  0193                     	;# 
   521  0194                     	;# 
   522  0195                     	;# 
   523  0196                     	;# 
   524  020C                     	;# 
   525  0211                     	;# 
   526  0211                     	;# 
   527  0212                     	;# 
   528  0212                     	;# 
   529  0213                     	;# 
   530  0213                     	;# 
   531  0214                     	;# 
   532  0214                     	;# 
   533  0215                     	;# 
   534  0215                     	;# 
   535  0215                     	;# 
   536  0216                     	;# 
   537  0216                     	;# 
   538  0217                     	;# 
   539  0217                     	;# 
   540  0391                     	;# 
   541  0392                     	;# 
   542  0393                     	;# 
   543  0FE4                     	;# 
   544  0FE5                     	;# 
   545  0FE6                     	;# 
   546  0FE7                     	;# 
   547  0FE8                     	;# 
   548  0FE9                     	;# 
   549  0FEA                     	;# 
   550  0FEB                     	;# 
   551  0FED                     	;# 
   552  0FEE                     	;# 
   553  0FEF                     	;# 
   554  0711                     	;# 
   555  0712                     	;# 
   556  0713                     	;# 
   557  0714                     	;# 
   558  0715                     	;# 
   559  0716                     	;# 
   560  0717                     	;# 
   561  0718                     	;# 
   562  0719                     	;# 
   563  071A                     	;# 
   564  071A                     	;# 
   565  071A                     	;# 
   566  071A                     	;# 
   567  071B                     	;# 
   568  071C                     	;# 
   569  071C                     	;# 
   570  071C                     	;# 
   571  071C                     	;# 
   572  071D                     	;# 
   573  0000                     	;# 
   574  0001                     	;# 
   575  0002                     	;# 
   576  0003                     	;# 
   577  0004                     	;# 
   578  0005                     	;# 
   579  0006                     	;# 
   580  0007                     	;# 
   581  0008                     	;# 
   582  0009                     	;# 
   583  000A                     	;# 
   584  000B                     	;# 
   585  000C                     	;# 
   586  0011                     	;# 
   587  0012                     	;# 
   588  0015                     	;# 
   589  008C                     	;# 
   590  0091                     	;# 
   591  0092                     	;# 
   592  0095                     	;# 
   593  0096                     	;# 
   594  0097                     	;# 
   595  0099                     	;# 
   596  009A                     	;# 
   597  009B                     	;# 
   598  009B                     	;# 
   599  009C                     	;# 
   600  009D                     	;# 
   601  009E                     	;# 
   602  009F                     	;# 
   603  010C                     	;# 
   604  0116                     	;# 
   605  0117                     	;# 
   606  011D                     	;# 
   607  011D                     	;# 
   608  018C                     	;# 
   609  0191                     	;# 
   610  0191                     	;# 
   611  0192                     	;# 
   612  0193                     	;# 
   613  0193                     	;# 
   614  0194                     	;# 
   615  0195                     	;# 
   616  0196                     	;# 
   617  020C                     	;# 
   618  0211                     	;# 
   619  0211                     	;# 
   620  0212                     	;# 
   621  0212                     	;# 
   622  0213                     	;# 
   623  0213                     	;# 
   624  0214                     	;# 
   625  0214                     	;# 
   626  0215                     	;# 
   627  0215                     	;# 
   628  0215                     	;# 
   629  0216                     	;# 
   630  0216                     	;# 
   631  0217                     	;# 
   632  0217                     	;# 
   633  0391                     	;# 
   634  0392                     	;# 
   635  0393                     	;# 
   636  0FE4                     	;# 
   637  0FE5                     	;# 
   638  0FE6                     	;# 
   639  0FE7                     	;# 
   640  0FE8                     	;# 
   641  0FE9                     	;# 
   642  0FEA                     	;# 
   643  0FEB                     	;# 
   644  0FED                     	;# 
   645  0FEE                     	;# 
   646  0FEF                     	;# 
   647  0711                     	;# 
   648  0712                     	;# 
   649  0713                     	;# 
   650  0714                     	;# 
   651  0715                     	;# 
   652  0716                     	;# 
   653  0717                     	;# 
   654  0718                     	;# 
   655  0719                     	;# 
   656  071A                     	;# 
   657  071A                     	;# 
   658  071A                     	;# 
   659  071A                     	;# 
   660  071B                     	;# 
   661  071C                     	;# 
   662  071C                     	;# 
   663  071C                     	;# 
   664  071C                     	;# 
   665  071D                     	;# 
   666  0000                     	;# 
   667  0001                     	;# 
   668  0002                     	;# 
   669  0003                     	;# 
   670  0004                     	;# 
   671  0005                     	;# 
   672  0006                     	;# 
   673  0007                     	;# 
   674  0008                     	;# 
   675  0009                     	;# 
   676  000A                     	;# 
   677  000B                     	;# 
   678  000C                     	;# 
   679  0011                     	;# 
   680  0012                     	;# 
   681  0015                     	;# 
   682  008C                     	;# 
   683  0091                     	;# 
   684  0092                     	;# 
   685  0095                     	;# 
   686  0096                     	;# 
   687  0097                     	;# 
   688  0099                     	;# 
   689  009A                     	;# 
   690  009B                     	;# 
   691  009B                     	;# 
   692  009C                     	;# 
   693  009D                     	;# 
   694  009E                     	;# 
   695  009F                     	;# 
   696  010C                     	;# 
   697  0116                     	;# 
   698  0117                     	;# 
   699  011D                     	;# 
   700  011D                     	;# 
   701  018C                     	;# 
   702  0191                     	;# 
   703  0191                     	;# 
   704  0192                     	;# 
   705  0193                     	;# 
   706  0193                     	;# 
   707  0194                     	;# 
   708  0195                     	;# 
   709  0196                     	;# 
   710  020C                     	;# 
   711  0211                     	;# 
   712  0211                     	;# 
   713  0212                     	;# 
   714  0212                     	;# 
   715  0213                     	;# 
   716  0213                     	;# 
   717  0214                     	;# 
   718  0214                     	;# 
   719  0215                     	;# 
   720  0215                     	;# 
   721  0215                     	;# 
   722  0216                     	;# 
   723  0216                     	;# 
   724  0217                     	;# 
   725  0217                     	;# 
   726  0391                     	;# 
   727  0392                     	;# 
   728  0393                     	;# 
   729  0FE4                     	;# 
   730  0FE5                     	;# 
   731  0FE6                     	;# 
   732  0FE7                     	;# 
   733  0FE8                     	;# 
   734  0FE9                     	;# 
   735  0FEA                     	;# 
   736  0FEB                     	;# 
   737  0FED                     	;# 
   738  0FEE                     	;# 
   739  0FEF                     	;# 
   740  0711                     	;# 
   741  0712                     	;# 
   742  0713                     	;# 
   743  0714                     	;# 
   744  0715                     	;# 
   745  0716                     	;# 
   746  0717                     	;# 
   747  0718                     	;# 
   748  0719                     	;# 
   749  071A                     	;# 
   750  071A                     	;# 
   751  071A                     	;# 
   752  071A                     	;# 
   753  071B                     	;# 
   754  071C                     	;# 
   755  071C                     	;# 
   756  071C                     	;# 
   757  071C                     	;# 
   758  071D                     	;# 
   759  0000                     	;# 
   760  0001                     	;# 
   761  0002                     	;# 
   762  0003                     	;# 
   763  0004                     	;# 
   764  0005                     	;# 
   765  0006                     	;# 
   766  0007                     	;# 
   767  0008                     	;# 
   768  0009                     	;# 
   769  000A                     	;# 
   770  000B                     	;# 
   771  000C                     	;# 
   772  0011                     	;# 
   773  0012                     	;# 
   774  0015                     	;# 
   775  008C                     	;# 
   776  0091                     	;# 
   777  0092                     	;# 
   778  0095                     	;# 
   779  0096                     	;# 
   780  0097                     	;# 
   781  0099                     	;# 
   782  009A                     	;# 
   783  009B                     	;# 
   784  009B                     	;# 
   785  009C                     	;# 
   786  009D                     	;# 
   787  009E                     	;# 
   788  009F                     	;# 
   789  010C                     	;# 
   790  0116                     	;# 
   791  0117                     	;# 
   792  011D                     	;# 
   793  011D                     	;# 
   794  018C                     	;# 
   795  0191                     	;# 
   796  0191                     	;# 
   797  0192                     	;# 
   798  0193                     	;# 
   799  0193                     	;# 
   800  0194                     	;# 
   801  0195                     	;# 
   802  0196                     	;# 
   803  020C                     	;# 
   804  0211                     	;# 
   805  0211                     	;# 
   806  0212                     	;# 
   807  0212                     	;# 
   808  0213                     	;# 
   809  0213                     	;# 
   810  0214                     	;# 
   811  0214                     	;# 
   812  0215                     	;# 
   813  0215                     	;# 
   814  0215                     	;# 
   815  0216                     	;# 
   816  0216                     	;# 
   817  0217                     	;# 
   818  0217                     	;# 
   819  0391                     	;# 
   820  0392                     	;# 
   821  0393                     	;# 
   822  0FE4                     	;# 
   823  0FE5                     	;# 
   824  0FE6                     	;# 
   825  0FE7                     	;# 
   826  0FE8                     	;# 
   827  0FE9                     	;# 
   828  0FEA                     	;# 
   829  0FEB                     	;# 
   830  0FED                     	;# 
   831  0FEE                     	;# 
   832  0FEF                     	;# 
   833  0711                     	;# 
   834  0712                     	;# 
   835  0713                     	;# 
   836  0714                     	;# 
   837  0715                     	;# 
   838  0716                     	;# 
   839  0717                     	;# 
   840  0718                     	;# 
   841  0719                     	;# 
   842  071A                     	;# 
   843  071A                     	;# 
   844  071A                     	;# 
   845  071A                     	;# 
   846  071B                     	;# 
   847  071C                     	;# 
   848  071C                     	;# 
   849  071C                     	;# 
   850  071C                     	;# 
   851  071D                     	;# 
   852                           
   853                           	psect	idataBANK0
   854  0211                     __pidataBANK0:	
   855                           
   856                           ;initializer for _Proximity_StateMachine
   857  0211  347F               	retlw	low _Proximity_State_Initializing
   858  0212  3403               	retlw	high _Proximity_State_Initializing
   859  0213  3425               	retlw	low _Proximity_State_NotActivated
   860  0214  3406               	retlw	high _Proximity_State_NotActivated
   861  0215  342B               	retlw	low _Proximity_State_Activated
   862  0216  3405               	retlw	high _Proximity_State_Activated
   863                           
   864                           ;initializer for _callback_notActivated
   865  0217  343C               	retlw	low _Proximity_DefaultCallback
   866  0218  3400               	retlw	high _Proximity_DefaultCallback
   867                           
   868                           ;initializer for _callback_activated
   869  0219  343C               	retlw	low _Proximity_DefaultCallback
   870  021A  3400               	retlw	high _Proximity_DefaultCallback
   871                           
   872                           ;initializer for _Sensor_scanB
   873  021B  34AF               	retlw	low _MTOUCH_CVD_ScanB_0
   874  021C  3402               	retlw	high _MTOUCH_CVD_ScanB_0
   875                           
   876                           ;initializer for _Sensor_scanA
   877  021D  348A               	retlw	low _MTOUCH_CVD_ScanA_0
   878  021E  3402               	retlw	high _MTOUCH_CVD_ScanA_0
   879                           
   880                           ;initializer for _callback_sampled
   881  021F  343D               	retlw	low _Sensor_DefaultCallback
   882  0220  3400               	retlw	high _Sensor_DefaultCallback
   883                           
   884                           ;initializer for _mtouch_sensor
   885  0221  3400               	retlw	0
   886  0222  348A               	retlw	low _MTOUCH_CVD_ScanA_0
   887  0223  3402               	retlw	high _MTOUCH_CVD_ScanA_0
   888  0224  34AF               	retlw	low _MTOUCH_CVD_ScanB_0
   889  0225  3402               	retlw	high _MTOUCH_CVD_ScanB_0
   890  0226  3420               	retlw	32
   891  0227  3400               	retlw	0
   892  0228  3400               	retlw	0
   893  0229  3400               	retlw	0
   894                           
   895                           	psect	stringtext1
   896  01A4                     __pstringtext1:	
   897  01A4                     _mtouch_proximity_init:	
   898  01A4  3400               	retlw	0
   899  01A5  3400               	retlw	0
   900  01A6  3400               	retlw	0
   901  01A7  3400               	retlw	0
   902  01A8  3400               	retlw	0
   903  01A9  3400               	retlw	0
   904  01AA  3400               	retlw	0
   905  01AB  3400               	retlw	0
   906  01AC  3400               	retlw	0
   907  01AD  3400               	retlw	0
   908  01AE  3400               	retlw	0
   909  01AF  3400               	retlw	0
   910  01B0  3400               	retlw	0
   911  01B1  3400               	retlw	0
   912  01B2  3400               	retlw	0
   913  01B3  3400               	retlw	0
   914  01B4  3464               	retlw	100
   915  01B5  3400               	retlw	0
   916  01B6                     __end_of_mtouch_proximity_init:	
   917  000B                     _INTCONbits	set	11
   918  005F                     _GIE	set	95
   919  009B                     _ADRES	set	155
   920  0095                     _OPTION_REGbits	set	149
   921  008C                     _TRISA	set	140
   922  0097                     _WDTCON	set	151
   923  009A                     _OSCSTAT	set	154
   924  0099                     _OSCCON	set	153
   925  009D                     _ADCON0bits	set	157
   926  009E                     _ADCON1	set	158
   927  009D                     _ADCON0	set	157
   928  011D                     _APFCON	set	285
   929  010C                     _LATA	set	268
   930  0116                     _BORCON	set	278
   931  010C                     _LATAbits	set	268
   932  018C                     _ANSELA	set	396
   933  020C                     _WPUA	set	524
   934                           
   935                           ; #config settings
   936  0000                     
   937                           	psect	cinit
   938  07EE                     start_initialization:	
   939  07EE                     __initialization:	
   940                           
   941                           ; Initialize objects allocated to BANK0
   942  07EE  3011               	movlw	low __pidataBANK0
   943  07EF  0084               	movwf	4
   944  07F0  3082               	movlw	(high __pidataBANK0)| (0+128)
   945  07F1  0085               	movwf	5
   946  07F2  303B               	movlw	low __pdataBANK0
   947  07F3  0086               	movwf	6
   948  07F4  3000               	movlw	high __pdataBANK0
   949  07F5  0087               	movwf	7
   950  07F6  3019               	movlw	25
   951  07F7  206E               	fcall	init_ram
   952                           
   953                           ; Clear objects allocated to BANK0
   954  07F8  3020               	movlw	low __pbssBANK0
   955  07F9  0084               	movwf	4
   956  07FA  3000               	movlw	high __pbssBANK0
   957  07FB  0085               	movwf	5
   958  07FC  301B               	movlw	27
   959  07FD  2068               	fcall	clear_ram0
   960  07FE                     end_of_initialization:	
   961                           ;End of C runtime variable initialization code
   962                           
   963  07FE                     __end_of__initialization:	
   964  07FE  0020               	movlb	0
   965  07FF  28DD               	ljmp	_main	;jump to C main() function
   966                           
   967                           	psect	bssBANK0
   968  0020                     __pbssBANK0:	
   969  0020                     _packet_sample:	
   970  0020                     	ds	2
   971  0022                     _mtouch_time_toScan:	
   972  0022                     	ds	1
   973  0023                     MTOUCH_Random@seed:	
   974  0023                     	ds	1
   975  0024                     _lowpowerActivated:	
   976  0024                     	ds	1
   977  0025                     _sample_delay:	
   978  0025                     	ds	1
   979  0026                     _packet_counter:	
   980  0026                     	ds	1
   981  0027                     _currentScannSensor:	
   982  0027                     	ds	1
   983  0028                     _sensor_globalFlags:	
   984  0028                     	ds	1
   985  0029                     _mtouch_proximity:	
   986  0029                     	ds	18
   987                           
   988                           	psect	dataBANK0
   989  003B                     __pdataBANK0:	
   990  003B                     _Proximity_StateMachine:	
   991  003B                     	ds	6
   992  0041                     _callback_notActivated:	
   993  0041                     	ds	2
   994  0043                     _callback_activated:	
   995  0043                     	ds	2
   996  0045                     _Sensor_scanB:	
   997  0045                     	ds	2
   998  0047                     _Sensor_scanA:	
   999  0047                     	ds	2
  1000  0049                     _callback_sampled:	
  1001  0049                     	ds	2
  1002  004B                     _mtouch_sensor:	
  1003  004B                     	ds	9
  1004                           
  1005                           	psect	inittext
  1006  006E                     init_ram:	
  1007  006E  00FE               	movwf	126
  1008  006F                     initloop:	
  1009  006F  0012               	moviw fsr0++
  1010  0070  001E               	movwi fsr1++
  1011  0071  0BFE               	decfsz	126,f
  1012  0072  286F               	goto	initloop
  1013  0073  3400               	retlw	0
  1014                           
  1015                           	psect	clrtext
  1016  0068                     clear_ram0:	
  1017                           ;	Called with FSR0 containing the base address, and
  1018                           ;	WREG with the size to clear
  1019                           
  1020  0068  0064               	clrwdt	;clear the watchdog before getting into this loop
  1021  0069                     clrloop0:	
  1022  0069  0180               	clrf	0	;clear RAM location pointed to by FSR
  1023  006A  3101               	addfsr 0,1
  1024  006B  0B89               	decfsz	9,f	;Have we reached the end of clearing yet?
  1025  006C  2869               	goto	clrloop0	;have we reached the end yet?
  1026  006D  3400               	retlw	0	;all done for this memory range, return
  1027                           
  1028                           	psect	cstackCOMMON
  1029  0070                     __pcstackCOMMON:	
  1030  0070                     ?_Sensor_DefaultCallback:	
  1031  0070                     ?_MTOUCH_CVD_ScanA_0:	
  1032                           ; 1 bytes @ 0x0
  1033                           
  1034  0070                     ??_MTOUCH_CVD_ScanA_0:	
  1035                           ; 1 bytes @ 0x0
  1036                           
  1037  0070                     ?_MTOUCH_CVD_ScanB_0:	
  1038                           ; 1 bytes @ 0x0
  1039                           
  1040  0070                     ??_MTOUCH_CVD_ScanB_0:	
  1041                           ; 1 bytes @ 0x0
  1042                           
  1043  0070                     ?_MTOUCH_Sensor_Enable:	
  1044                           ; 1 bytes @ 0x0
  1045                           
  1046  0070                     ?_Sensor_Sampled_Reset:	
  1047                           ; 1 bytes @ 0x0
  1048                           
  1049  0070                     ??_Sensor_Sampled_Reset:	
  1050                           ; 1 bytes @ 0x0
  1051                           
  1052  0070                     ?_Sensor_Service:	
  1053                           ; 1 bytes @ 0x0
  1054                           
  1055  0070                     ?_Sensor_Acquisition:	
  1056                           ; 1 bytes @ 0x0
  1057                           
  1058  0070                     ?_Sensor_isEnabled:	
  1059                           ; 1 bytes @ 0x0
  1060                           
  1061  0070                     ??_Sensor_isEnabled:	
  1062                           ; 1 bytes @ 0x0
  1063                           
  1064  0070                     ?_Sensor_RawSample_Update:	
  1065                           ; 1 bytes @ 0x0
  1066                           
  1067  0070                     ??_Sensor_RawSample_Update:	
  1068                           ; 1 bytes @ 0x0
  1069                           
  1070  0070                     ?_Sensor_setSampled:	
  1071                           ; 1 bytes @ 0x0
  1072                           
  1073  0070                     ??_Sensor_setSampled:	
  1074                           ; 1 bytes @ 0x0
  1075                           
  1076  0070                     ?_Sensor_Acq_ExecutePacket:	
  1077                           ; 1 bytes @ 0x0
  1078                           
  1079  0070                     ?_Sensor_setActive:	
  1080                           ; 1 bytes @ 0x0
  1081                           
  1082  0070                     ??_Sensor_setActive:	
  1083                           ; 1 bytes @ 0x0
  1084                           
  1085  0070                     ?_Sensor_setInactive:	
  1086                           ; 1 bytes @ 0x0
  1087                           
  1088  0070                     ??_Sensor_setInactive:	
  1089                           ; 1 bytes @ 0x0
  1090                           
  1091  0070                     ?_Sensor_setScanFunction:	
  1092                           ; 1 bytes @ 0x0
  1093                           
  1094  0070                     ??_Sensor_setScanFunction:	
  1095                           ; 1 bytes @ 0x0
  1096                           
  1097  0070                     ?_MTOUCH_Random:	
  1098                           ; 1 bytes @ 0x0
  1099                           
  1100  0070                     ??_MTOUCH_Random:	
  1101                           ; 1 bytes @ 0x0
  1102                           
  1103  0070                     ?_Sensor_Acq_ExecuteScan:	
  1104                           ; 1 bytes @ 0x0
  1105                           
  1106  0070                     ?_MTOUCH_Delay:	
  1107                           ; 1 bytes @ 0x0
  1108                           
  1109  0070                     ??_MTOUCH_Delay:	
  1110                           ; 1 bytes @ 0x0
  1111                           
  1112  0070                     ?_Proximity_DefaultCallback:	
  1113                           ; 1 bytes @ 0x0
  1114                           
  1115  0070                     ?_memcpy:	
  1116                           ; 1 bytes @ 0x0
  1117                           
  1118  0070                     ?_Proximity_Service:	
  1119                           ; 1 bytes @ 0x0
  1120                           
  1121  0070                     ?_Proximity_Reading_Update:	
  1122                           ; 1 bytes @ 0x0
  1123                           
  1124  0070                     ?_Proximity_Deviation_Update:	
  1125                           ; 1 bytes @ 0x0
  1126                           
  1127  0070                     ?_Proximity_Baseline_Initialize:	
  1128                           ; 1 bytes @ 0x0
  1129                           
  1130  0070                     ?_Proximity_Baseline_Update:	
  1131                           ; 1 bytes @ 0x0
  1132                           
  1133  0070                     ??_Proximity_Baseline_Update:	
  1134                           ; 1 bytes @ 0x0
  1135                           
  1136  0070                     ?_Proximity_Tick_helper:	
  1137                           ; 1 bytes @ 0x0
  1138                           
  1139  0070                     ??_Proximity_Tick_helper:	
  1140                           ; 1 bytes @ 0x0
  1141                           
  1142  0070                     ?_Proximity_Reading_Update_Helper:	
  1143                           ; 1 bytes @ 0x0
  1144                           
  1145  0070                     ?_MTOUCH_needReburst:	
  1146                           ; 1 bytes @ 0x0
  1147                           
  1148  0070                     ??_MTOUCH_needReburst:	
  1149                           ; 1 bytes @ 0x0
  1150                           
  1151  0070                     ?_MTOUCH_Tick:	
  1152                           ; 1 bytes @ 0x0
  1153                           
  1154  0070                     ?_PIN_MANAGER_Initialize:	
  1155                           ; 1 bytes @ 0x0
  1156                           
  1157  0070                     ??_PIN_MANAGER_Initialize:	
  1158                           ; 1 bytes @ 0x0
  1159                           
  1160  0070                     ?_OSCILLATOR_Initialize:	
  1161                           ; 1 bytes @ 0x0
  1162                           
  1163  0070                     ??_OSCILLATOR_Initialize:	
  1164                           ; 1 bytes @ 0x0
  1165                           
  1166  0070                     ?_WDT_Initialize:	
  1167                           ; 1 bytes @ 0x0
  1168                           
  1169  0070                     ??_WDT_Initialize:	
  1170                           ; 1 bytes @ 0x0
  1171                           
  1172  0070                     ?_MTOUCH_Sensor_Initialize:	
  1173                           ; 1 bytes @ 0x0
  1174                           
  1175  0070                     ?_MTOUCH_Sensor_InitializeAll:	
  1176                           ; 1 bytes @ 0x0
  1177                           
  1178  0070                     ?_MTOUCH_Sensor_Scan_Initialize:	
  1179                           ; 1 bytes @ 0x0
  1180                           
  1181  0070                     ??_MTOUCH_Sensor_Scan_Initialize:	
  1182                           ; 1 bytes @ 0x0
  1183                           
  1184  0070                     ?_MTOUCH_Sensor_SampleAll:	
  1185                           ; 1 bytes @ 0x0
  1186                           
  1187  0070                     ?_MTOUCH_Sensor_isCalibrated:	
  1188                           ; 1 bytes @ 0x0
  1189                           
  1190  0070                     ??_MTOUCH_Sensor_isCalibrated:	
  1191                           ; 1 bytes @ 0x0
  1192                           
  1193  0070                     ?_MTOUCH_Sensor_Sampled_ResetAll:	
  1194                           ; 1 bytes @ 0x0
  1195                           
  1196  0070                     ?_MTOUCH_Sensor_wasSampled:	
  1197                           ; 1 bytes @ 0x0
  1198                           
  1199  0070                     ?_MTOUCH_Proximity_Initialize:	
  1200                           ; 1 bytes @ 0x0
  1201                           
  1202  0070                     ??_MTOUCH_Proximity_Initialize:	
  1203                           ; 1 bytes @ 0x0
  1204                           
  1205  0070                     ?_MTOUCH_Proximity_InitializeAll:	
  1206                           ; 1 bytes @ 0x0
  1207                           
  1208  0070                     ?_MTOUCH_Proximity_ServiceAll:	
  1209                           ; 1 bytes @ 0x0
  1210                           
  1211  0070                     ?_MTOUCH_Proximity_Tick:	
  1212                           ; 1 bytes @ 0x0
  1213                           
  1214  0070                     ?_MTOUCH_Proximity_SetActivatedCallback:	
  1215                           ; 1 bytes @ 0x0
  1216                           
  1217  0070                     ?_MTOUCH_Proximity_SetNotActivatedCallback:	
  1218                           ; 1 bytes @ 0x0
  1219                           
  1220  0070                     ?_User_Proximity_Actived_Callback:	
  1221                           ; 1 bytes @ 0x0
  1222                           
  1223  0070                     ?_User_Proximity_Deactived_Callback:	
  1224                           ; 1 bytes @ 0x0
  1225                           
  1226  0070                     ?_MTOUCH_Initialize:	
  1227                           ; 1 bytes @ 0x0
  1228                           
  1229  0070                     ?_MTOUCH_Service_Mainloop:	
  1230                           ; 1 bytes @ 0x0
  1231                           
  1232  0070                     ?_SYSTEM_Initialize:	
  1233                           ; 1 bytes @ 0x0
  1234                           
  1235  0070                     ?_main:	
  1236                           ; 1 bytes @ 0x0
  1237                           
  1238  0070                     ?___bmul:	
  1239                           ; 1 bytes @ 0x0
  1240                           
  1241  0070                     ?_abs:	
  1242                           ; 1 bytes @ 0x0
  1243                           
  1244  0070                     ?_MTOUCH_Proximity_Reading_Get:	
  1245                           ; 2 bytes @ 0x0
  1246                           
  1247  0070                     ?_Proximity_Baseline_Get_helper:	
  1248                           ; 4 bytes @ 0x0
  1249                           
  1250  0070                     Sensor_RawSample_Update@sensor:	
  1251                           ; 4 bytes @ 0x0
  1252                           
  1253  0070                     Sensor_DefaultCallback@sensor:	
  1254                           ; 1 bytes @ 0x0
  1255                           
  1256  0070                     Sensor_setScanFunction@sensor:	
  1257                           ; 1 bytes @ 0x0
  1258                           
  1259  0070                     Sensor_isEnabled@sensor:	
  1260                           ; 1 bytes @ 0x0
  1261                           
  1262  0070                     Sensor_setActive@sensor:	
  1263                           ; 1 bytes @ 0x0
  1264                           
  1265  0070                     Sensor_setInactive@sensor:	
  1266                           ; 1 bytes @ 0x0
  1267                           
  1268  0070                     MTOUCH_Sensor_isCalibrated@sensor:	
  1269                           ; 1 bytes @ 0x0
  1270                           
  1271  0070                     Sensor_Sampled_Reset@sensor:	
  1272                           ; 1 bytes @ 0x0
  1273                           
  1274  0070                     Sensor_setSampled@sensor:	
  1275                           ; 1 bytes @ 0x0
  1276                           
  1277  0070                     Proximity_DefaultCallback@name:	
  1278                           ; 1 bytes @ 0x0
  1279                           
  1280  0070                     User_Proximity_Actived_Callback@name:	
  1281                           ; 1 bytes @ 0x0
  1282                           
  1283  0070                     User_Proximity_Deactived_Callback@name:	
  1284                           ; 1 bytes @ 0x0
  1285                           
  1286  0070                     ___bmul@multiplicand:	
  1287                           ; 1 bytes @ 0x0
  1288                           
  1289  0070                     MTOUCH_Proximity_SetActivatedCallback@callback:	
  1290                           ; 1 bytes @ 0x0
  1291                           
  1292  0070                     MTOUCH_Proximity_SetNotActivatedCallback@callback:	
  1293                           ; 2 bytes @ 0x0
  1294                           
  1295  0070                     abs@a:	
  1296                           ; 2 bytes @ 0x0
  1297                           
  1298  0070                     memcpy@s1:	
  1299                           ; 2 bytes @ 0x0
  1300                           
  1301                           
  1302                           ; 2 bytes @ 0x0
  1303  0070                     	ds	1
  1304  0071                     ??_Sensor_DefaultCallback:	
  1305  0071                     ??_Proximity_DefaultCallback:	
  1306                           ; 1 bytes @ 0x1
  1307                           
  1308  0071                     ??_MTOUCH_Sensor_Sampled_ResetAll:	
  1309                           ; 1 bytes @ 0x1
  1310                           
  1311  0071                     ??_User_Proximity_Actived_Callback:	
  1312                           ; 1 bytes @ 0x1
  1313                           
  1314  0071                     ??_User_Proximity_Deactived_Callback:	
  1315                           ; 1 bytes @ 0x1
  1316                           
  1317  0071                     ??___bmul:	
  1318                           ; 1 bytes @ 0x1
  1319                           
  1320  0071                     MTOUCH_Delay@i:	
  1321                           ; 1 bytes @ 0x1
  1322                           
  1323  0071                     MTOUCH_Proximity_Initialize@name:	
  1324                           ; 1 bytes @ 0x1
  1325                           
  1326                           
  1327                           ; 1 bytes @ 0x1
  1328  0071                     	ds	1
  1329  0072                     ??_abs:	
  1330  0072                     ??_MTOUCH_Proximity_SetActivatedCallback:	
  1331                           ; 1 bytes @ 0x2
  1332                           
  1333  0072                     ??_MTOUCH_Proximity_SetNotActivatedCallback:	
  1334                           ; 1 bytes @ 0x2
  1335                           
  1336  0072                     MTOUCH_Sensor_Sampled_ResetAll@sensor:	
  1337                           ; 1 bytes @ 0x2
  1338                           
  1339  0072                     MTOUCH_Proximity_Initialize@prox:	
  1340                           ; 1 bytes @ 0x2
  1341                           
  1342  0072                     Proximity_Tick_helper@prox:	
  1343                           ; 1 bytes @ 0x2
  1344                           
  1345  0072                     ___bmul@product:	
  1346                           ; 1 bytes @ 0x2
  1347                           
  1348  0072                     memcpy@n:	
  1349                           ; 1 bytes @ 0x2
  1350                           
  1351                           
  1352                           ; 2 bytes @ 0x2
  1353  0072                     	ds	1
  1354  0073                     ??_MTOUCH_Tick:	
  1355  0073                     ??_MTOUCH_Proximity_Tick:	
  1356                           ; 1 bytes @ 0x3
  1357                           
  1358  0073                     ___bmul@multiplier:	
  1359                           ; 1 bytes @ 0x3
  1360                           
  1361                           
  1362                           ; 1 bytes @ 0x3
  1363  0073                     	ds	1
  1364  0074                     ??_MTOUCH_Sensor_Enable:	
  1365  0074                     ??_Sensor_Acq_ExecuteScan:	
  1366                           ; 1 bytes @ 0x4
  1367                           
  1368  0074                     ??_memcpy:	
  1369                           ; 1 bytes @ 0x4
  1370                           
  1371  0074                     ??_Proximity_Baseline_Get_helper:	
  1372                           ; 1 bytes @ 0x4
  1373                           
  1374  0074                     ??_MTOUCH_Sensor_wasSampled:	
  1375                           ; 1 bytes @ 0x4
  1376                           
  1377  0074                     ?_MTOUCH_Sensor_RawSample_Get:	
  1378                           ; 1 bytes @ 0x4
  1379                           
  1380  0074                     Proximity_Baseline_Update@prox:	
  1381                           ; 2 bytes @ 0x4
  1382                           
  1383                           
  1384                           ; 1 bytes @ 0x4
  1385  0074                     	ds	1
  1386  0075                     ??_MTOUCH_Proximity_Reading_Get:	
  1387  0075                     MTOUCH_Sensor_Enable@sensor:	
  1388                           ; 1 bytes @ 0x5
  1389                           
  1390  0075                     MTOUCH_Sensor_wasSampled@sensor:	
  1391                           ; 1 bytes @ 0x5
  1392                           
  1393  0075                     MTOUCH_Proximity_Reading_Get@name:	
  1394                           ; 1 bytes @ 0x5
  1395                           
  1396  0075                     memcpy@s:	
  1397                           ; 1 bytes @ 0x5
  1398                           
  1399                           
  1400                           ; 2 bytes @ 0x5
  1401  0075                     	ds	1
  1402  0076                     ??_MTOUCH_Sensor_Initialize:	
  1403  0076                     ??_MTOUCH_Sensor_RawSample_Get:	
  1404                           ; 1 bytes @ 0x6
  1405                           
  1406  0076                     Sensor_Acq_ExecuteScan@result:	
  1407                           ; 1 bytes @ 0x6
  1408                           
  1409                           
  1410                           ; 2 bytes @ 0x6
  1411  0076                     	ds	1
  1412  0077                     MTOUCH_Sensor_Initialize@sensor:	
  1413  0077                     MTOUCH_Sensor_RawSample_Get@name:	
  1414                           ; 1 bytes @ 0x7
  1415                           
  1416  0077                     memcpy@tmp:	
  1417                           ; 1 bytes @ 0x7
  1418                           
  1419                           
  1420                           ; 1 bytes @ 0x7
  1421  0077                     	ds	1
  1422  0078                     ??_Sensor_Acq_ExecutePacket:	
  1423  0078                     ??_Proximity_Baseline_Initialize:	
  1424                           ; 1 bytes @ 0x8
  1425                           
  1426  0078                     ??_Proximity_Reading_Update_Helper:	
  1427                           ; 1 bytes @ 0x8
  1428                           
  1429  0078                     ??_MTOUCH_Sensor_InitializeAll:	
  1430                           ; 1 bytes @ 0x8
  1431                           
  1432  0078                     Proximity_Baseline_Get_helper@name:	
  1433                           ; 1 bytes @ 0x8
  1434                           
  1435  0078                     memcpy@d1:	
  1436                           ; 1 bytes @ 0x8
  1437                           
  1438                           
  1439                           ; 1 bytes @ 0x8
  1440  0078                     	ds	1
  1441  0079                     ?_MTOUCH_Proximity_Baseline_Get:	
  1442  0079                     MTOUCH_Sensor_InitializeAll@sensor:	
  1443                           ; 4 bytes @ 0x9
  1444                           
  1445  0079                     Sensor_Acq_ExecutePacket@ADCON0_temp:	
  1446                           ; 1 bytes @ 0x9
  1447                           
  1448  0079                     memcpy@d:	
  1449                           ; 1 bytes @ 0x9
  1450                           
  1451                           
  1452                           ; 1 bytes @ 0x9
  1453  0079                     	ds	1
  1454  007A                     ??_MTOUCH_Proximity_InitializeAll:	
  1455  007A                     ??_MTOUCH_Initialize:	
  1456                           ; 1 bytes @ 0xA
  1457                           
  1458  007A                     ??_SYSTEM_Initialize:	
  1459                           ; 1 bytes @ 0xA
  1460                           
  1461  007A                     Sensor_Acq_ExecutePacket@ADCON1_temp:	
  1462                           ; 1 bytes @ 0xA
  1463                           
  1464                           
  1465                           ; 1 bytes @ 0xA
  1466  007A                     	ds	1
  1467  007B                     Sensor_Acq_ExecutePacket@GIE_state:	
  1468                           
  1469                           ; 1 bytes @ 0xB
  1470  007B                     	ds	1
  1471  007C                     Sensor_Acq_ExecutePacket@error:	
  1472  007C                     Proximity_Baseline_Initialize@prox:	
  1473                           ; 1 bytes @ 0xC
  1474                           
  1475                           
  1476                           ; 1 bytes @ 0xC
  1477  007C                     	ds	1
  1478  007D                     Sensor_Acq_ExecutePacket@sensor:	
  1479                           
  1480                           ; 1 bytes @ 0xD
  1481  007D                     	ds	1
  1482  007E                     ??_Proximity_Reading_Update:	
  1483  007E                     ??_MTOUCH_Proximity_Baseline_Get:	
  1484                           ; 1 bytes @ 0xE
  1485                           
  1486  007E                     ??_MTOUCH_Proximity_ServiceAll:	
  1487                           ; 1 bytes @ 0xE
  1488                           
  1489  007E                     ??_main:	
  1490                           ; 1 bytes @ 0xE
  1491                           
  1492                           
  1493                           	psect	cstackBANK0
  1494  0054                     __pcstackBANK0:	
  1495                           ; 1 bytes @ 0xE
  1496                           
  1497  0054                     ??_Sensor_Acquisition:	
  1498  0054                     Proximity_Reading_Update_Helper@prox:	
  1499                           ; 1 bytes @ 0x0
  1500                           
  1501  0054                     MTOUCH_Proximity_Baseline_Get@name:	
  1502                           ; 1 bytes @ 0x0
  1503                           
  1504                           
  1505                           ; 1 bytes @ 0x0
  1506  0054                     	ds	1
  1507  0055                     ?_Proximity_State_Initializing:	
  1508  0055                     ?_Proximity_State_NotActivated:	
  1509                           ; 1 bytes @ 0x1
  1510                           
  1511  0055                     ?_Proximity_State_Activated:	
  1512                           ; 1 bytes @ 0x1
  1513                           
  1514  0055                     ??_Proximity_Deviation_Update:	
  1515                           ; 1 bytes @ 0x1
  1516                           
  1517  0055                     Sensor_Acquisition@retry:	
  1518                           ; 1 bytes @ 0x1
  1519                           
  1520  0055                     Proximity_State_Initializing@prox:	
  1521                           ; 1 bytes @ 0x1
  1522                           
  1523  0055                     Proximity_State_NotActivated@prox:	
  1524                           ; 1 bytes @ 0x1
  1525                           
  1526  0055                     Proximity_State_Activated@prox:	
  1527                           ; 1 bytes @ 0x1
  1528                           
  1529  0055                     Proximity_Reading_Update@prox:	
  1530                           ; 1 bytes @ 0x1
  1531                           
  1532                           
  1533                           ; 1 bytes @ 0x1
  1534  0055                     	ds	1
  1535  0056                     ??_Proximity_State_Initializing:	
  1536  0056                     ??_Proximity_State_NotActivated:	
  1537                           ; 1 bytes @ 0x2
  1538                           
  1539  0056                     ??_Proximity_State_Activated:	
  1540                           ; 1 bytes @ 0x2
  1541                           
  1542  0056                     Sensor_Acquisition@sensor:	
  1543                           ; 1 bytes @ 0x2
  1544                           
  1545                           
  1546                           ; 1 bytes @ 0x2
  1547  0056                     	ds	1
  1548  0057                     ??_Sensor_Service:	
  1549                           
  1550                           ; 1 bytes @ 0x3
  1551  0057                     	ds	2
  1552  0059                     Sensor_Service@name:	
  1553                           
  1554                           ; 1 bytes @ 0x5
  1555  0059                     	ds	1
  1556  005A                     Sensor_Service@error:	
  1557                           
  1558                           ; 1 bytes @ 0x6
  1559  005A                     	ds	1
  1560  005B                     Sensor_Service@sensor:	
  1561                           
  1562                           ; 1 bytes @ 0x7
  1563  005B                     	ds	1
  1564  005C                     ??_MTOUCH_Sensor_SampleAll:	
  1565                           
  1566                           ; 1 bytes @ 0x8
  1567  005C                     	ds	1
  1568  005D                     MTOUCH_Sensor_SampleAll@sensor:	
  1569  005D                     Proximity_State_NotActivated@deviation:	
  1570                           ; 1 bytes @ 0x9
  1571                           
  1572                           
  1573                           ; 4 bytes @ 0x9
  1574  005D                     	ds	2
  1575  005F                     Proximity_Deviation_Update@deviation:	
  1576                           
  1577                           ; 4 bytes @ 0xB
  1578  005F                     	ds	4
  1579  0063                     Proximity_Deviation_Update@name:	
  1580                           
  1581                           ; 1 bytes @ 0xF
  1582  0063                     	ds	1
  1583  0064                     ??_Proximity_Service:	
  1584                           
  1585                           ; 1 bytes @ 0x10
  1586  0064                     	ds	1
  1587  0065                     Proximity_Service@name:	
  1588                           
  1589                           ; 1 bytes @ 0x11
  1590  0065                     	ds	1
  1591  0066                     Proximity_Service@prox:	
  1592                           
  1593                           ; 1 bytes @ 0x12
  1594  0066                     	ds	1
  1595  0067                     ??_MTOUCH_Service_Mainloop:	
  1596                           
  1597                           ; 1 bytes @ 0x13
  1598  0067                     	ds	1
  1599                           
  1600                           	psect	maintext
  1601  00DD                     __pmaintext:	
  1602 ;;
  1603 ;;Main: autosize = 0, tempsize = 0, incstack = 0, save=0
  1604 ;;
  1605 ;; *************** function _main *****************
  1606 ;; Defined at:
  1607 ;;		line 48 in file "main.c"
  1608 ;; Parameters:    Size  Location     Type
  1609 ;;		None
  1610 ;; Auto vars:     Size  Location     Type
  1611 ;;		None
  1612 ;; Return value:  Size  Location     Type
  1613 ;;                  1    wreg      void 
  1614 ;; Registers used:
  1615 ;;		wreg, fsr0l, fsr0h, fsr1l, fsr1h, status,2, status,0, pclath, cstack
  1616 ;; Tracked objects:
  1617 ;;		On entry : B1F/0
  1618 ;;		On exit  : 0/0
  1619 ;;		Unchanged: 0/0
  1620 ;; Data sizes:     COMMON   BANK0   BANK1   BANK2
  1621 ;;      Params:         0       0       0       0
  1622 ;;      Locals:         0       0       0       0
  1623 ;;      Temps:          0       0       0       0
  1624 ;;      Totals:         0       0       0       0
  1625 ;;Total ram usage:        0 bytes
  1626 ;; Hardware stack levels required when called:    7
  1627 ;; This function calls:
  1628 ;;		_MTOUCH_Proximity_SetActivatedCallback
  1629 ;;		_MTOUCH_Proximity_SetNotActivatedCallback
  1630 ;;		_MTOUCH_Service_Mainloop
  1631 ;;		_SYSTEM_Initialize
  1632 ;; This function is called by:
  1633 ;;		Startup code after reset
  1634 ;; This function uses a non-reentrant model
  1635 ;;
  1636                           
  1637                           
  1638                           ;psect for function _main
  1639  00DD                     _main:	
  1640                           
  1641                           ;main.c: 51:     SYSTEM_Initialize();
  1642                           
  1643                           ;incstack = 0
  1644                           ; Regs used in _main: [wreg-fsr1h+status,2+status,0+pclath+cstack]
  1645  00DD  205D               	fcall	_SYSTEM_Initialize
  1646                           
  1647                           ;main.c: 67:     MTOUCH_Proximity_SetActivatedCallback(User_Proximity_Actived_Callback);
  1648  00DE  306E               	movlw	low _User_Proximity_Actived_Callback
  1649  00DF  00F0               	movwf	MTOUCH_Proximity_SetActivatedCallback@callback
  1650  00E0  3001               	movlw	high _User_Proximity_Actived_Callback
  1651  00E1  00F1               	movwf	MTOUCH_Proximity_SetActivatedCallback@callback+1
  1652  00E2  2062               	fcall	_MTOUCH_Proximity_SetActivatedCallback
  1653                           
  1654                           ;main.c: 68:     MTOUCH_Proximity_SetNotActivatedCallback(User_Proximity_Deactived_Callb
      +                          ack);
  1655  00E3  3080               	movlw	low _User_Proximity_Deactived_Callback
  1656  00E4  00F0               	movwf	MTOUCH_Proximity_SetNotActivatedCallback@callback
  1657  00E5  3001               	movlw	high _User_Proximity_Deactived_Callback
  1658  00E6  00F1               	movwf	MTOUCH_Proximity_SetNotActivatedCallback@callback+1
  1659  00E7  204E               	fcall	_MTOUCH_Proximity_SetNotActivatedCallback
  1660  00E8                     l545:	
  1661                           ;main.c: 69:     while (1)
  1662                           
  1663                           
  1664                           ;main.c: 70:     {;main.c: 72:         MTOUCH_Service_Mainloop();
  1665  00E8  2109               	fcall	_MTOUCH_Service_Mainloop
  1666  00E9  28E8               	goto	l545
  1667  00EA                     __end_of_main:	
  1668                           
  1669                           	psect	text1
  1670  005D                     __ptext1:	
  1671 ;; *************** function _SYSTEM_Initialize *****************
  1672 ;; Defined at:
  1673 ;;		line 50 in file "mcc_generated_files/mcc.c"
  1674 ;; Parameters:    Size  Location     Type
  1675 ;;		None
  1676 ;; Auto vars:     Size  Location     Type
  1677 ;;		None
  1678 ;; Return value:  Size  Location     Type
  1679 ;;                  1    wreg      void 
  1680 ;; Registers used:
  1681 ;;		wreg, fsr0l, fsr0h, fsr1l, fsr1h, status,2, status,0, pclath, cstack
  1682 ;; Tracked objects:
  1683 ;;		On entry : B1F/0
  1684 ;;		On exit  : 1F/1
  1685 ;;		Unchanged: 0/0
  1686 ;; Data sizes:     COMMON   BANK0   BANK1   BANK2
  1687 ;;      Params:         0       0       0       0
  1688 ;;      Locals:         0       0       0       0
  1689 ;;      Temps:          0       0       0       0
  1690 ;;      Totals:         0       0       0       0
  1691 ;;Total ram usage:        0 bytes
  1692 ;; Hardware stack levels used:    1
  1693 ;; Hardware stack levels required when called:    5
  1694 ;; This function calls:
  1695 ;;		_MTOUCH_Initialize
  1696 ;;		_OSCILLATOR_Initialize
  1697 ;;		_PIN_MANAGER_Initialize
  1698 ;;		_WDT_Initialize
  1699 ;; This function is called by:
  1700 ;;		_main
  1701 ;; This function uses a non-reentrant model
  1702 ;;
  1703                           
  1704                           
  1705                           ;psect for function _SYSTEM_Initialize
  1706  005D                     _SYSTEM_Initialize:	
  1707                           
  1708                           ;mcc_generated_files/mcc.c: 53:     PIN_MANAGER_Initialize();
  1709                           
  1710                           ;incstack = 0
  1711                           ; Regs used in _SYSTEM_Initialize: [wreg-fsr1h+status,2+status,0+pclath+cstack]
  1712  005D  2119               	fcall	_PIN_MANAGER_Initialize
  1713                           
  1714                           ;mcc_generated_files/mcc.c: 54:     OSCILLATOR_Initialize();
  1715  005E  2090               	fcall	_OSCILLATOR_Initialize
  1716                           
  1717                           ;mcc_generated_files/mcc.c: 55:     WDT_Initialize();
  1718  005F  204A               	fcall	_WDT_Initialize
  1719                           
  1720                           ;mcc_generated_files/mcc.c: 56:     MTOUCH_Initialize();
  1721  0060  2058               	fcall	_MTOUCH_Initialize
  1722  0061  0008               	return
  1723  0062                     __end_of_SYSTEM_Initialize:	
  1724                           
  1725                           	psect	text2
  1726  004A                     __ptext2:	
  1727 ;; *************** function _WDT_Initialize *****************
  1728 ;; Defined at:
  1729 ;;		line 69 in file "mcc_generated_files/mcc.c"
  1730 ;; Parameters:    Size  Location     Type
  1731 ;;		None
  1732 ;; Auto vars:     Size  Location     Type
  1733 ;;		None
  1734 ;; Return value:  Size  Location     Type
  1735 ;;                  1    wreg      void 
  1736 ;; Registers used:
  1737 ;;		wreg
  1738 ;; Tracked objects:
  1739 ;;		On entry : B1F/2
  1740 ;;		On exit  : B1F/1
  1741 ;;		Unchanged: B00/0
  1742 ;; Data sizes:     COMMON   BANK0   BANK1   BANK2
  1743 ;;      Params:         0       0       0       0
  1744 ;;      Locals:         0       0       0       0
  1745 ;;      Temps:          0       0       0       0
  1746 ;;      Totals:         0       0       0       0
  1747 ;;Total ram usage:        0 bytes
  1748 ;; Hardware stack levels used:    1
  1749 ;; This function calls:
  1750 ;;		Nothing
  1751 ;; This function is called by:
  1752 ;;		_SYSTEM_Initialize
  1753 ;; This function uses a non-reentrant model
  1754 ;;
  1755                           
  1756                           
  1757                           ;psect for function _WDT_Initialize
  1758  004A                     _WDT_Initialize:	
  1759                           
  1760                           ;mcc_generated_files/mcc.c: 72:     WDTCON = 0x16;
  1761                           
  1762                           ;incstack = 0
  1763                           ; Regs used in _WDT_Initialize: [wreg]
  1764  004A  3016               	movlw	22
  1765  004B  0021               	movlb	1	; select bank1
  1766  004C  0097               	movwf	23	;volatile
  1767  004D  0008               	return
  1768  004E                     __end_of_WDT_Initialize:	
  1769                           
  1770                           	psect	text3
  1771  0119                     __ptext3:	
  1772 ;; *************** function _PIN_MANAGER_Initialize *****************
  1773 ;; Defined at:
  1774 ;;		line 55 in file "mcc_generated_files/pin_manager.c"
  1775 ;; Parameters:    Size  Location     Type
  1776 ;;		None
  1777 ;; Auto vars:     Size  Location     Type
  1778 ;;		None
  1779 ;; Return value:  Size  Location     Type
  1780 ;;                  1    wreg      void 
  1781 ;; Registers used:
  1782 ;;		wreg, status,2
  1783 ;; Tracked objects:
  1784 ;;		On entry : B1F/0
  1785 ;;		On exit  : B1F/2
  1786 ;;		Unchanged: B00/0
  1787 ;; Data sizes:     COMMON   BANK0   BANK1   BANK2
  1788 ;;      Params:         0       0       0       0
  1789 ;;      Locals:         0       0       0       0
  1790 ;;      Temps:          0       0       0       0
  1791 ;;      Totals:         0       0       0       0
  1792 ;;Total ram usage:        0 bytes
  1793 ;; Hardware stack levels used:    1
  1794 ;; This function calls:
  1795 ;;		Nothing
  1796 ;; This function is called by:
  1797 ;;		_SYSTEM_Initialize
  1798 ;; This function uses a non-reentrant model
  1799 ;;
  1800                           
  1801                           
  1802                           ;psect for function _PIN_MANAGER_Initialize
  1803  0119                     _PIN_MANAGER_Initialize:	
  1804                           
  1805                           ;mcc_generated_files/pin_manager.c: 60:     LATA = 0x00;
  1806                           
  1807                           ;incstack = 0
  1808                           ; Regs used in _PIN_MANAGER_Initialize: [wreg+status,2]
  1809  0119  0022               	movlb	2	; select bank2
  1810  011A  018C               	clrf	12	;volatile
  1811                           
  1812                           ;mcc_generated_files/pin_manager.c: 65:     TRISA = 0x39;
  1813  011B  3039               	movlw	57
  1814  011C  0021               	movlb	1	; select bank1
  1815  011D  008C               	movwf	12	;volatile
  1816                           
  1817                           ;mcc_generated_files/pin_manager.c: 70:     ANSELA = 0x33;
  1818  011E  3033               	movlw	51
  1819  011F  0023               	movlb	3	; select bank3
  1820  0120  008C               	movwf	12	;volatile
  1821                           
  1822                           ;mcc_generated_files/pin_manager.c: 75:     WPUA = 0x00;
  1823  0121  0024               	movlb	4	; select bank4
  1824  0122  018C               	clrf	12	;volatile
  1825                           
  1826                           ;mcc_generated_files/pin_manager.c: 76:     OPTION_REGbits.nWPUEN = 1;
  1827  0123  0021               	movlb	1	; select bank1
  1828  0124  1795               	bsf	21,7	;volatile
  1829                           
  1830                           ;mcc_generated_files/pin_manager.c: 82:     APFCON = 0x10;
  1831  0125  3010               	movlw	16
  1832  0126  0022               	movlb	2	; select bank2
  1833  0127  009D               	movwf	29	;volatile
  1834  0128  0008               	return
  1835  0129                     __end_of_PIN_MANAGER_Initialize:	
  1836                           
  1837                           	psect	text4
  1838  0090                     __ptext4:	
  1839 ;; *************** function _OSCILLATOR_Initialize *****************
  1840 ;; Defined at:
  1841 ;;		line 59 in file "mcc_generated_files/mcc.c"
  1842 ;; Parameters:    Size  Location     Type
  1843 ;;		None
  1844 ;; Auto vars:     Size  Location     Type
  1845 ;;		None
  1846 ;; Return value:  Size  Location     Type
  1847 ;;                  1    wreg      void 
  1848 ;; Registers used:
  1849 ;;		wreg, status,2
  1850 ;; Tracked objects:
  1851 ;;		On entry : B1F/2
  1852 ;;		On exit  : B1F/2
  1853 ;;		Unchanged: B00/0
  1854 ;; Data sizes:     COMMON   BANK0   BANK1   BANK2
  1855 ;;      Params:         0       0       0       0
  1856 ;;      Locals:         0       0       0       0
  1857 ;;      Temps:          0       0       0       0
  1858 ;;      Totals:         0       0       0       0
  1859 ;;Total ram usage:        0 bytes
  1860 ;; Hardware stack levels used:    1
  1861 ;; This function calls:
  1862 ;;		Nothing
  1863 ;; This function is called by:
  1864 ;;		_SYSTEM_Initialize
  1865 ;; This function uses a non-reentrant model
  1866 ;;
  1867                           
  1868                           
  1869                           ;psect for function _OSCILLATOR_Initialize
  1870  0090                     _OSCILLATOR_Initialize:	
  1871                           
  1872                           ;mcc_generated_files/mcc.c: 62:     OSCCON = 0x78;
  1873                           
  1874                           ;incstack = 0
  1875                           ; Regs used in _OSCILLATOR_Initialize: [wreg+status,2]
  1876  0090  3078               	movlw	120
  1877  0091  0021               	movlb	1	; select bank1
  1878  0092  0099               	movwf	25	;volatile
  1879                           
  1880                           ;mcc_generated_files/mcc.c: 64:     OSCSTAT = 0x00;
  1881  0093  019A               	clrf	26	;volatile
  1882                           
  1883                           ;mcc_generated_files/mcc.c: 66:     BORCON = 0x00;
  1884  0094  0022               	movlb	2	; select bank2
  1885  0095  0196               	clrf	22	;volatile
  1886  0096  0008               	return
  1887  0097                     __end_of_OSCILLATOR_Initialize:	
  1888                           
  1889                           	psect	text5
  1890  0058                     __ptext5:	
  1891 ;; *************** function _MTOUCH_Initialize *****************
  1892 ;; Defined at:
  1893 ;;		line 80 in file "mcc_generated_files/mtouch/mtouch.c"
  1894 ;; Parameters:    Size  Location     Type
  1895 ;;		None
  1896 ;; Auto vars:     Size  Location     Type
  1897 ;;		None
  1898 ;; Return value:  Size  Location     Type
  1899 ;;                  1    wreg      void 
  1900 ;; Registers used:
  1901 ;;		wreg, fsr0l, fsr0h, fsr1l, fsr1h, status,2, status,0, pclath, cstack
  1902 ;; Tracked objects:
  1903 ;;		On entry : B1F/1
  1904 ;;		On exit  : 1F/1
  1905 ;;		Unchanged: 0/0
  1906 ;; Data sizes:     COMMON   BANK0   BANK1   BANK2
  1907 ;;      Params:         0       0       0       0
  1908 ;;      Locals:         0       0       0       0
  1909 ;;      Temps:          0       0       0       0
  1910 ;;      Totals:         0       0       0       0
  1911 ;;Total ram usage:        0 bytes
  1912 ;; Hardware stack levels used:    1
  1913 ;; Hardware stack levels required when called:    4
  1914 ;; This function calls:
  1915 ;;		_MTOUCH_Proximity_InitializeAll
  1916 ;;		_MTOUCH_Sensor_InitializeAll
  1917 ;;		_MTOUCH_Sensor_Sampled_ResetAll
  1918 ;;		_MTOUCH_Sensor_Scan_Initialize
  1919 ;; This function is called by:
  1920 ;;		_SYSTEM_Initialize
  1921 ;; This function uses a non-reentrant model
  1922 ;;
  1923                           
  1924                           
  1925                           ;psect for function _MTOUCH_Initialize
  1926  0058                     _MTOUCH_Initialize:	
  1927                           
  1928                           ;mcc_generated_files/mtouch/mtouch.c: 82:     MTOUCH_Sensor_InitializeAll();
  1929                           
  1930                           ;incstack = 0
  1931                           ; Regs used in _MTOUCH_Initialize: [wreg-fsr1h+status,2+status,0+pclath+cstack]
  1932  0058  20AC               	fcall	_MTOUCH_Sensor_InitializeAll
  1933                           
  1934                           ;mcc_generated_files/mtouch/mtouch.c: 83:     MTOUCH_Proximity_InitializeAll();
  1935  0059  20D0               	fcall	_MTOUCH_Proximity_InitializeAll
  1936                           
  1937                           ;mcc_generated_files/mtouch/mtouch.c: 84:     MTOUCH_Sensor_Sampled_ResetAll();
  1938  005A  214B               	fcall	_MTOUCH_Sensor_Sampled_ResetAll
  1939                           
  1940                           ;mcc_generated_files/mtouch/mtouch.c: 85:     MTOUCH_Sensor_Scan_Initialize();
  1941  005B  2053               	fcall	_MTOUCH_Sensor_Scan_Initialize
  1942  005C  0008               	return
  1943  005D                     __end_of_MTOUCH_Initialize:	
  1944                           
  1945                           	psect	text6
  1946  00AC                     __ptext6:	
  1947 ;; *************** function _MTOUCH_Sensor_InitializeAll *****************
  1948 ;; Defined at:
  1949 ;;		line 156 in file "mcc_generated_files/mtouch/mtouch_sensor.c"
  1950 ;; Parameters:    Size  Location     Type
  1951 ;;		None
  1952 ;; Auto vars:     Size  Location     Type
  1953 ;;  sensor          1    9[COMMON] enum E1336
  1954 ;; Return value:  Size  Location     Type
  1955 ;;                  1    wreg      void 
  1956 ;; Registers used:
  1957 ;;		wreg, fsr1l, fsr1h, status,2, status,0, pclath, cstack
  1958 ;; Tracked objects:
  1959 ;;		On entry : B1F/1
  1960 ;;		On exit  : 0/0
  1961 ;;		Unchanged: 0/0
  1962 ;; Data sizes:     COMMON   BANK0   BANK1   BANK2
  1963 ;;      Params:         0       0       0       0
  1964 ;;      Locals:         1       0       0       0
  1965 ;;      Temps:          1       0       0       0
  1966 ;;      Totals:         2       0       0       0
  1967 ;;Total ram usage:        2 bytes
  1968 ;; Hardware stack levels used:    1
  1969 ;; Hardware stack levels required when called:    3
  1970 ;; This function calls:
  1971 ;;		_MTOUCH_Sensor_Initialize
  1972 ;; This function is called by:
  1973 ;;		_MTOUCH_Initialize
  1974 ;; This function uses a non-reentrant model
  1975 ;;
  1976                           
  1977                           
  1978                           ;psect for function _MTOUCH_Sensor_InitializeAll
  1979  00AC                     _MTOUCH_Sensor_InitializeAll:	
  1980                           
  1981                           ;mcc_generated_files/mtouch/mtouch_sensor.c: 158:     enum mtouch_sensor_names sensor;;m
      +                          cc_generated_files/mtouch/mtouch_sensor.c: 159:     for (sensor = 0; sensor < 1u; sensor
      +                          ++)
  1982                           
  1983                           ;incstack = 0
  1984                           ; Regs used in _MTOUCH_Sensor_InitializeAll: [wreg+fsr1l+fsr1h+status,2+status,0+pclath+
      +                          cstack]
  1985  00AC  01F9               	clrf	MTOUCH_Sensor_InitializeAll@sensor
  1986  00AD                     l2185:	
  1987                           
  1988                           ;mcc_generated_files/mtouch/mtouch_sensor.c: 160:     {;mcc_generated_files/mtouch/mtouc
      +                          h_sensor.c: 161:         MTOUCH_Sensor_Initialize(sensor);
  1989  00AD  0879               	movf	MTOUCH_Sensor_InitializeAll@sensor,w
  1990  00AE  20B7               	fcall	_MTOUCH_Sensor_Initialize
  1991                           
  1992                           ;mcc_generated_files/mtouch/mtouch_sensor.c: 162:     }
  1993  00AF  3001               	movlw	1
  1994  00B0  00F8               	movwf	??_MTOUCH_Sensor_InitializeAll
  1995  00B1  0878               	movf	??_MTOUCH_Sensor_InitializeAll,w
  1996  00B2  07F9               	addwf	MTOUCH_Sensor_InitializeAll@sensor,f
  1997  00B3  0879               	movf	MTOUCH_Sensor_InitializeAll@sensor,w
  1998  00B4  1D03               	btfss	3,2
  1999  00B5  0008               	return
  2000  00B6  28AD               	goto	l2185
  2001  00B7                     __end_of_MTOUCH_Sensor_InitializeAll:	
  2002                           
  2003                           	psect	text7
  2004  00B7                     __ptext7:	
  2005 ;; *************** function _MTOUCH_Sensor_Initialize *****************
  2006 ;; Defined at:
  2007 ;;		line 142 in file "mcc_generated_files/mtouch/mtouch_sensor.c"
  2008 ;; Parameters:    Size  Location     Type
  2009 ;;  sensor          1    wreg     enum E1336
  2010 ;; Auto vars:     Size  Location     Type
  2011 ;;  sensor          1    7[COMMON] enum E1336
  2012 ;; Return value:  Size  Location     Type
  2013 ;;                  1    wreg      enum E1338
  2014 ;; Registers used:
  2015 ;;		wreg, fsr1l, fsr1h, status,2, status,0, pclath, cstack
  2016 ;; Tracked objects:
  2017 ;;		On entry : 0/1
  2018 ;;		On exit  : 0/0
  2019 ;;		Unchanged: 0/0
  2020 ;; Data sizes:     COMMON   BANK0   BANK1   BANK2
  2021 ;;      Params:         0       0       0       0
  2022 ;;      Locals:         1       0       0       0
  2023 ;;      Temps:          1       0       0       0
  2024 ;;      Totals:         2       0       0       0
  2025 ;;Total ram usage:        2 bytes
  2026 ;; Hardware stack levels used:    1
  2027 ;; Hardware stack levels required when called:    2
  2028 ;; This function calls:
  2029 ;;		_MTOUCH_Sensor_Enable
  2030 ;;		_Sensor_Sampled_Reset
  2031 ;;		___bmul
  2032 ;; This function is called by:
  2033 ;;		_MTOUCH_Sensor_InitializeAll
  2034 ;; This function uses a non-reentrant model
  2035 ;;
  2036                           
  2037                           
  2038                           ;psect for function _MTOUCH_Sensor_Initialize
  2039  00B7                     _MTOUCH_Sensor_Initialize:	
  2040                           
  2041                           ;incstack = 0
  2042                           ; Regs used in _MTOUCH_Sensor_Initialize: [wreg+fsr1l+fsr1h+status,2+status,0+pclath+cst
      +                          ack]
  2043                           ;MTOUCH_Sensor_Initialize@sensor stored from wreg
  2044  00B7  00F7               	movwf	MTOUCH_Sensor_Initialize@sensor
  2045                           
  2046                           ;mcc_generated_files/mtouch/mtouch_sensor.c: 142: enum mtouch_sensor_error MTOUCH_Sensor
      +                          _Initialize(enum mtouch_sensor_names sensor);mcc_generated_files/mtouch/mtouch_sensor.c:
      +                           143: {;mcc_generated_files/mtouch/mtouch_sensor.c: 144:     MTOUCH_Sensor_Enable(sensor
      +                          );
  2047  00B8  0877               	movf	MTOUCH_Sensor_Initialize@sensor,w
  2048  00B9  20EA               	fcall	_MTOUCH_Sensor_Enable
  2049                           
  2050                           ;mcc_generated_files/mtouch/mtouch_sensor.c: 145:     Sensor_Sampled_Reset(&mtouch_senso
      +                          r[sensor]);
  2051  00BA  3009               	movlw	9
  2052  00BB  00F6               	movwf	??_MTOUCH_Sensor_Initialize
  2053  00BC  0876               	movf	??_MTOUCH_Sensor_Initialize,w
  2054  00BD  00F0               	movwf	___bmul@multiplicand
  2055  00BE  0877               	movf	MTOUCH_Sensor_Initialize@sensor,w
  2056  00BF  2129               	fcall	___bmul
  2057  00C0  3E4B               	addlw	(low (_mtouch_sensor| 0))& (0+255)
  2058  00C1  2089               	fcall	_Sensor_Sampled_Reset
  2059  00C2  0008               	return
  2060  00C3                     __end_of_MTOUCH_Sensor_Initialize:	
  2061                           
  2062                           	psect	text8
  2063  00EA                     __ptext8:	
  2064 ;; *************** function _MTOUCH_Sensor_Enable *****************
  2065 ;; Defined at:
  2066 ;;		line 478 in file "mcc_generated_files/mtouch/mtouch_sensor.c"
  2067 ;; Parameters:    Size  Location     Type
  2068 ;;  sensor          1    wreg     enum E1336
  2069 ;; Auto vars:     Size  Location     Type
  2070 ;;  sensor          1    5[COMMON] enum E1336
  2071 ;; Return value:  Size  Location     Type
  2072 ;;                  1    wreg      void 
  2073 ;; Registers used:
  2074 ;;		wreg, fsr1l, fsr1h, status,2, status,0, pclath, cstack
  2075 ;; Tracked objects:
  2076 ;;		On entry : 0/1
  2077 ;;		On exit  : 0/0
  2078 ;;		Unchanged: 0/0
  2079 ;; Data sizes:     COMMON   BANK0   BANK1   BANK2
  2080 ;;      Params:         0       0       0       0
  2081 ;;      Locals:         1       0       0       0
  2082 ;;      Temps:          1       0       0       0
  2083 ;;      Totals:         2       0       0       0
  2084 ;;Total ram usage:        2 bytes
  2085 ;; Hardware stack levels used:    1
  2086 ;; Hardware stack levels required when called:    1
  2087 ;; This function calls:
  2088 ;;		___bmul
  2089 ;; This function is called by:
  2090 ;;		_MTOUCH_Sensor_Initialize
  2091 ;; This function uses a non-reentrant model
  2092 ;;
  2093                           
  2094                           
  2095                           ;psect for function _MTOUCH_Sensor_Enable
  2096  00EA                     _MTOUCH_Sensor_Enable:	
  2097                           
  2098                           ;incstack = 0
  2099                           ; Regs used in _MTOUCH_Sensor_Enable: [wreg+fsr1l+fsr1h+status,2+status,0+pclath+cstack]
  2100                           ;MTOUCH_Sensor_Enable@sensor stored from wreg
  2101  00EA  00F5               	movwf	MTOUCH_Sensor_Enable@sensor
  2102                           
  2103                           ;mcc_generated_files/mtouch/mtouch_sensor.c: 478: void MTOUCH_Sensor_Enable(enum mtouch_
      +                          sensor_names sensor);mcc_generated_files/mtouch/mtouch_sensor.c: 479: {;mcc_generated_fi
      +                          les/mtouch/mtouch_sensor.c: 480:     if(sensor < 1u)
  2104  00EB  0875               	movf	MTOUCH_Sensor_Enable@sensor,w
  2105  00EC  1D03               	btfss	3,2
  2106  00ED  0008               	return
  2107                           
  2108                           ;mcc_generated_files/mtouch/mtouch_sensor.c: 481:         mtouch_sensor[sensor].enabled 
      +                          = 1;
  2109  00EE  3009               	movlw	9
  2110  00EF  00F4               	movwf	??_MTOUCH_Sensor_Enable
  2111  00F0  0874               	movf	??_MTOUCH_Sensor_Enable,w
  2112  00F1  00F0               	movwf	___bmul@multiplicand
  2113  00F2  0875               	movf	MTOUCH_Sensor_Enable@sensor,w
  2114  00F3  2129               	fcall	___bmul
  2115  00F4  3E53               	addlw	(low ((_mtouch_sensor| 0+8)))& (0+255)
  2116  00F5  0086               	movwf	6
  2117  00F6  0187               	clrf	7
  2118  00F7  1401               	bsf	1,0
  2119  00F8  0008               	return
  2120  00F9                     __end_of_MTOUCH_Sensor_Enable:	
  2121                           
  2122                           	psect	text9
  2123  00D0                     __ptext9:	
  2124 ;; *************** function _MTOUCH_Proximity_InitializeAll *****************
  2125 ;; Defined at:
  2126 ;;		line 162 in file "mcc_generated_files/mtouch/mtouch_proximity.c"
  2127 ;; Parameters:    Size  Location     Type
  2128 ;;		None
  2129 ;; Auto vars:     Size  Location     Type
  2130 ;;		None
  2131 ;; Return value:  Size  Location     Type
  2132 ;;                  1    wreg      void 
  2133 ;; Registers used:
  2134 ;;		wreg, fsr0l, fsr0h, fsr1l, fsr1h, status,2, status,0, pclath, cstack
  2135 ;; Tracked objects:
  2136 ;;		On entry : 0/1
  2137 ;;		On exit  : 0/0
  2138 ;;		Unchanged: 0/0
  2139 ;; Data sizes:     COMMON   BANK0   BANK1   BANK2
  2140 ;;      Params:         0       0       0       0
  2141 ;;      Locals:         0       0       0       0
  2142 ;;      Temps:          0       0       0       0
  2143 ;;      Totals:         0       0       0       0
  2144 ;;Total ram usage:        0 bytes
  2145 ;; Hardware stack levels used:    1
  2146 ;; Hardware stack levels required when called:    1
  2147 ;; This function calls:
  2148 ;;		_MTOUCH_Proximity_Initialize
  2149 ;;		_memcpy
  2150 ;; This function is called by:
  2151 ;;		_MTOUCH_Initialize
  2152 ;; This function uses a non-reentrant model
  2153 ;;
  2154                           
  2155                           
  2156                           ;psect for function _MTOUCH_Proximity_InitializeAll
  2157  00D0                     _MTOUCH_Proximity_InitializeAll:	
  2158                           
  2159                           ;mcc_generated_files/mtouch/mtouch_proximity.c: 164:     memcpy(mtouch_proximity,mtouch_
      +                          proximity_init,sizeof(mtouch_proximity_init));
  2160                           
  2161                           ;incstack = 0
  2162                           ; Regs used in _MTOUCH_Proximity_InitializeAll: [wreg-fsr1h+status,2+status,0+pclath+cst
      +                          ack]
  2163  00D0  30A4               	movlw	low (_mtouch_proximity_init| (0+32768))
  2164  00D1  00F0               	movwf	memcpy@s1
  2165  00D2  3081               	movlw	high (_mtouch_proximity_init| (0+32768))
  2166  00D3  00F1               	movwf	memcpy@s1+1
  2167  00D4  3012               	movlw	18
  2168  00D5  00F2               	movwf	memcpy@n
  2169  00D6  3000               	movlw	0
  2170  00D7  00F3               	movwf	memcpy@n+1
  2171  00D8  3029               	movlw	(low (_mtouch_proximity| 0))& (0+255)
  2172  00D9  2323               	fcall	_memcpy
  2173                           
  2174                           ;mcc_generated_files/mtouch/mtouch_proximity.c: 166:     MTOUCH_Proximity_Initialize(Pro
      +                          ximity_WearingDetect);
  2175  00DA  3000               	movlw	0
  2176  00DB  22D4               	fcall	_MTOUCH_Proximity_Initialize
  2177  00DC  0008               	return
  2178  00DD                     __end_of_MTOUCH_Proximity_InitializeAll:	
  2179                           
  2180                           	psect	text10
  2181  0323                     __ptext10:	
  2182 ;; *************** function _memcpy *****************
  2183 ;; Defined at:
  2184 ;;		line 4 in file "C:\Program Files (x86)\Microchip\xc8\v2.10\pic\sources\c99\common\memcpy.c"
  2185 ;; Parameters:    Size  Location     Type
  2186 ;;  d1              1    wreg     PTR void 
  2187 ;;		 -> mtouch_proximity(18), 
  2188 ;;  s1              2    0[COMMON] PTR const void 
  2189 ;;		 -> mtouch_proximity_init(18), 
  2190 ;;  n               2    2[COMMON] unsigned int 
  2191 ;; Auto vars:     Size  Location     Type
  2192 ;;  d1              1    8[COMMON] PTR void 
  2193 ;;		 -> mtouch_proximity(18), 
  2194 ;;  s               2    5[COMMON] PTR const unsigned char 
  2195 ;;		 -> mtouch_proximity_init(18), 
  2196 ;;  d               1    9[COMMON] PTR unsigned char 
  2197 ;;		 -> mtouch_proximity(18), 
  2198 ;;  tmp             1    7[COMMON] unsigned char 
  2199 ;; Return value:  Size  Location     Type
  2200 ;;                  1    wreg      PTR void 
  2201 ;; Registers used:
  2202 ;;		wreg, fsr0l, fsr0h, fsr1l, fsr1h, status,2, status,0, pclath
  2203 ;; Tracked objects:
  2204 ;;		On entry : 0/1
  2205 ;;		On exit  : 0/0
  2206 ;;		Unchanged: 0/0
  2207 ;; Data sizes:     COMMON   BANK0   BANK1   BANK2
  2208 ;;      Params:         4       0       0       0
  2209 ;;      Locals:         5       0       0       0
  2210 ;;      Temps:          1       0       0       0
  2211 ;;      Totals:        10       0       0       0
  2212 ;;Total ram usage:       10 bytes
  2213 ;; Hardware stack levels used:    1
  2214 ;; This function calls:
  2215 ;;		Nothing
  2216 ;; This function is called by:
  2217 ;;		_MTOUCH_Proximity_InitializeAll
  2218 ;; This function uses a non-reentrant model
  2219 ;;
  2220                           
  2221                           
  2222                           ;psect for function _memcpy
  2223  0323                     _memcpy:	
  2224                           
  2225                           ;incstack = 0
  2226                           ; Regs used in _memcpy: [wreg-fsr1h+status,2+status,0+pclath]
  2227                           ;memcpy@d1 stored from wreg
  2228  0323  00F8               	movwf	memcpy@d1
  2229  0324  0871               	movf	memcpy@s1+1,w
  2230  0325  00F6               	movwf	memcpy@s+1
  2231  0326  0870               	movf	memcpy@s1,w
  2232  0327  00F5               	movwf	memcpy@s
  2233  0328  0878               	movf	memcpy@d1,w
  2234  0329  00F4               	movwf	??_memcpy
  2235  032A  0874               	movf	??_memcpy,w
  2236  032B  00F9               	movwf	memcpy@d
  2237  032C                     l2087:	
  2238  032C  3001               	movlw	1
  2239  032D  02F2               	subwf	memcpy@n,f
  2240  032E  3000               	movlw	0
  2241  032F  3BF3               	subwfb	memcpy@n+1,f
  2242  0330  0A72               	incf	memcpy@n,w
  2243  0331  1903               	btfsc	3,2
  2244  0332  0A73               	incf	memcpy@n+1,w
  2245  0333  1903               	btfsc	3,2
  2246  0334  0008               	return
  2247  0335  0875               	movf	memcpy@s,w
  2248  0336  0084               	movwf	4
  2249  0337  0876               	movf	memcpy@s+1,w
  2250  0338  0085               	movwf	5
  2251  0339  0800               	movf	0,w	;code access
  2252  033A  00F4               	movwf	??_memcpy
  2253  033B  0874               	movf	??_memcpy,w
  2254  033C  00F7               	movwf	memcpy@tmp
  2255  033D  3001               	movlw	1
  2256  033E  07F5               	addwf	memcpy@s,f
  2257  033F  3000               	movlw	0
  2258  0340  3DF6               	addwfc	memcpy@s+1,f
  2259  0341  0877               	movf	memcpy@tmp,w
  2260  0342  00F4               	movwf	??_memcpy
  2261  0343  0879               	movf	memcpy@d,w
  2262  0344  0086               	movwf	6
  2263  0345  0187               	clrf	7
  2264  0346  0874               	movf	??_memcpy,w
  2265  0347  0081               	movwf	1
  2266  0348  3001               	movlw	1
  2267  0349  00F4               	movwf	??_memcpy
  2268  034A  0874               	movf	??_memcpy,w
  2269  034B  07F9               	addwf	memcpy@d,f
  2270  034C  2B2C               	goto	l2087
  2271  034D                     __end_of_memcpy:	
  2272                           
  2273                           	psect	text11
  2274  0109                     __ptext11:	
  2275 ;; *************** function _MTOUCH_Service_Mainloop *****************
  2276 ;; Defined at:
  2277 ;;		line 95 in file "mcc_generated_files/mtouch/mtouch.c"
  2278 ;; Parameters:    Size  Location     Type
  2279 ;;		None
  2280 ;; Auto vars:     Size  Location     Type
  2281 ;;		None
  2282 ;; Return value:  Size  Location     Type
  2283 ;;                  1    wreg      _Bool 
  2284 ;; Registers used:
  2285 ;;		wreg, fsr0l, fsr0h, fsr1l, fsr1h, status,2, status,0, pclath, cstack
  2286 ;; Tracked objects:
  2287 ;;		On entry : 0/0
  2288 ;;		On exit  : 0/0
  2289 ;;		Unchanged: 0/0
  2290 ;; Data sizes:     COMMON   BANK0   BANK1   BANK2
  2291 ;;      Params:         0       0       0       0
  2292 ;;      Locals:         0       0       0       0
  2293 ;;      Temps:          0       1       0       0
  2294 ;;      Totals:         0       1       0       0
  2295 ;;Total ram usage:        1 bytes
  2296 ;; Hardware stack levels used:    1
  2297 ;; Hardware stack levels required when called:    6
  2298 ;; This function calls:
  2299 ;;		_MTOUCH_Proximity_ServiceAll
  2300 ;;		_MTOUCH_Sensor_SampleAll
  2301 ;;		_MTOUCH_Sensor_Sampled_ResetAll
  2302 ;;		_MTOUCH_Tick
  2303 ;;		_MTOUCH_needReburst
  2304 ;; This function is called by:
  2305 ;;		_main
  2306 ;; This function uses a non-reentrant model
  2307 ;;
  2308                           
  2309                           
  2310                           ;psect for function _MTOUCH_Service_Mainloop
  2311  0109                     _MTOUCH_Service_Mainloop:	
  2312                           
  2313                           ;mcc_generated_files/mtouch/mtouch.c: 99:     mtouch_time_toScan = 1;
  2314                           
  2315                           ;incstack = 0
  2316                           ; Regs used in _MTOUCH_Service_Mainloop: [wreg-fsr1h+status,2+status,0+pclath+cstack]
  2317  0109  0020               	movlb	0	; select bank0
  2318  010A  01A2               	clrf	_mtouch_time_toScan
  2319  010B  0AA2               	incf	_mtouch_time_toScan,f
  2320                           
  2321                           ;mcc_generated_files/mtouch/mtouch.c: 102:     {;mcc_generated_files/mtouch/mtouch.c: 10
      +                          3:         if(MTOUCH_Sensor_SampleAll() == 0)
  2322                           
  2323                           ;mcc_generated_files/mtouch/mtouch.c: 101:     if(mtouch_time_toScan)
  2324  010C  213A               	fcall	_MTOUCH_Sensor_SampleAll
  2325  010D  3A00               	xorlw	0
  2326  010E  1903               	btfsc	3,2
  2327  010F  0008               	return
  2328                           
  2329                           ;mcc_generated_files/mtouch/mtouch.c: 107:             MTOUCH_Proximity_ServiceAll();
  2330  0110  2044               	fcall	_MTOUCH_Proximity_ServiceAll
  2331                           
  2332                           ;mcc_generated_files/mtouch/mtouch.c: 108:             mtouch_time_toScan = MTOUCH_needR
      +                          eburst();
  2333  0111  2042               	fcall	_MTOUCH_needReburst
  2334  0112  0020               	movlb	0	; select bank0
  2335  0113  00E7               	movwf	??_MTOUCH_Service_Mainloop
  2336  0114  0867               	movf	??_MTOUCH_Service_Mainloop,w
  2337  0115  00A2               	movwf	_mtouch_time_toScan
  2338                           
  2339                           ;mcc_generated_files/mtouch/mtouch.c: 109:             MTOUCH_Sensor_Sampled_ResetAll();
  2340  0116  214B               	fcall	_MTOUCH_Sensor_Sampled_ResetAll
  2341                           
  2342                           ;mcc_generated_files/mtouch/mtouch.c: 110:             MTOUCH_Tick();
  2343  0117  2040               	fcall	_MTOUCH_Tick
  2344  0118  0008               	return
  2345  0119                     __end_of_MTOUCH_Service_Mainloop:	
  2346                           
  2347                           	psect	text12
  2348  0042                     __ptext12:	
  2349 ;; *************** function _MTOUCH_needReburst *****************
  2350 ;; Defined at:
  2351 ;;		line 134 in file "mcc_generated_files/mtouch/mtouch.c"
  2352 ;; Parameters:    Size  Location     Type
  2353 ;;		None
  2354 ;; Auto vars:     Size  Location     Type
  2355 ;;  needReburst     1    0        _Bool 
  2356 ;; Return value:  Size  Location     Type
  2357 ;;                  1    wreg      _Bool 
  2358 ;; Registers used:
  2359 ;;		wreg, status,2
  2360 ;; Tracked objects:
  2361 ;;		On entry : 0/0
  2362 ;;		On exit  : 0/0
  2363 ;;		Unchanged: 0/0
  2364 ;; Data sizes:     COMMON   BANK0   BANK1   BANK2
  2365 ;;      Params:         0       0       0       0
  2366 ;;      Locals:         1       0       0       0
  2367 ;;      Temps:          0       0       0       0
  2368 ;;      Totals:         1       0       0       0
  2369 ;;Total ram usage:        1 bytes
  2370 ;; Hardware stack levels used:    1
  2371 ;; This function calls:
  2372 ;;		Nothing
  2373 ;; This function is called by:
  2374 ;;		_MTOUCH_Service_Mainloop
  2375 ;; This function uses a non-reentrant model
  2376 ;;
  2377                           
  2378                           
  2379                           ;psect for function _MTOUCH_needReburst
  2380  0042                     _MTOUCH_needReburst:	
  2381                           
  2382                           ;mcc_generated_files/mtouch/mtouch.c: 138:     return needReburst;
  2383                           
  2384                           ;incstack = 0
  2385                           ; Regs used in _MTOUCH_needReburst: [wreg+status,2]
  2386  0042  3000               	movlw	0
  2387  0043  0008               	return
  2388  0044                     __end_of_MTOUCH_needReburst:	
  2389                           
  2390                           	psect	text13
  2391  0040                     __ptext13:	
  2392 ;; *************** function _MTOUCH_Tick *****************
  2393 ;; Defined at:
  2394 ;;		line 124 in file "mcc_generated_files/mtouch/mtouch.c"
  2395 ;; Parameters:    Size  Location     Type
  2396 ;;		None
  2397 ;; Auto vars:     Size  Location     Type
  2398 ;;		None
  2399 ;; Return value:  Size  Location     Type
  2400 ;;                  1    wreg      void 
  2401 ;; Registers used:
  2402 ;;		wreg, fsr1l, fsr1h, status,2, status,0, pclath, cstack
  2403 ;; Tracked objects:
  2404 ;;		On entry : 0/0
  2405 ;;		On exit  : 0/0
  2406 ;;		Unchanged: 0/0
  2407 ;; Data sizes:     COMMON   BANK0   BANK1   BANK2
  2408 ;;      Params:         0       0       0       0
  2409 ;;      Locals:         0       0       0       0
  2410 ;;      Temps:          0       0       0       0
  2411 ;;      Totals:         0       0       0       0
  2412 ;;Total ram usage:        0 bytes
  2413 ;; Hardware stack levels used:    1
  2414 ;; Hardware stack levels required when called:    2
  2415 ;; This function calls:
  2416 ;;		_MTOUCH_Proximity_Tick
  2417 ;; This function is called by:
  2418 ;;		_MTOUCH_Service_Mainloop
  2419 ;; This function uses a non-reentrant model
  2420 ;;
  2421                           
  2422                           
  2423                           ;psect for function _MTOUCH_Tick
  2424  0040                     _MTOUCH_Tick:	
  2425                           
  2426                           ;mcc_generated_files/mtouch/mtouch.c: 126:     MTOUCH_Proximity_Tick();
  2427                           
  2428                           ;incstack = 0
  2429                           ; Regs used in _MTOUCH_Tick: [wreg+fsr1l+fsr1h+status,2+status,0+pclath+cstack]
  2430  0040  2047               	fcall	_MTOUCH_Proximity_Tick
  2431  0041  0008               	return
  2432  0042                     __end_of_MTOUCH_Tick:	
  2433                           
  2434                           	psect	text14
  2435  0047                     __ptext14:	
  2436 ;; *************** function _MTOUCH_Proximity_Tick *****************
  2437 ;; Defined at:
  2438 ;;		line 275 in file "mcc_generated_files/mtouch/mtouch_proximity.c"
  2439 ;; Parameters:    Size  Location     Type
  2440 ;;		None
  2441 ;; Auto vars:     Size  Location     Type
  2442 ;;		None
  2443 ;; Return value:  Size  Location     Type
  2444 ;;                  1    wreg      void 
  2445 ;; Registers used:
  2446 ;;		wreg, fsr1l, fsr1h, status,2, status,0, pclath, cstack
  2447 ;; Tracked objects:
  2448 ;;		On entry : 0/0
  2449 ;;		On exit  : 0/0
  2450 ;;		Unchanged: 0/0
  2451 ;; Data sizes:     COMMON   BANK0   BANK1   BANK2
  2452 ;;      Params:         0       0       0       0
  2453 ;;      Locals:         0       0       0       0
  2454 ;;      Temps:          0       0       0       0
  2455 ;;      Totals:         0       0       0       0
  2456 ;;Total ram usage:        0 bytes
  2457 ;; Hardware stack levels used:    1
  2458 ;; Hardware stack levels required when called:    1
  2459 ;; This function calls:
  2460 ;;		_Proximity_Tick_helper
  2461 ;; This function is called by:
  2462 ;;		_MTOUCH_Tick
  2463 ;; This function uses a non-reentrant model
  2464 ;;
  2465                           
  2466                           
  2467                           ;psect for function _MTOUCH_Proximity_Tick
  2468  0047                     _MTOUCH_Proximity_Tick:	
  2469                           
  2470                           ;mcc_generated_files/mtouch/mtouch_proximity.c: 277:     Proximity_Tick_helper(&mtouch_p
      +                          roximity[0]);
  2471                           
  2472                           ;incstack = 0
  2473                           ; Regs used in _MTOUCH_Proximity_Tick: [wreg+fsr1l+fsr1h+status,2+status,0+pclath+cstack
      +                          ]
  2474  0047  3029               	movlw	(low (_mtouch_proximity| 0))& (0+255)
  2475  0048  2267               	fcall	_Proximity_Tick_helper
  2476  0049  0008               	return
  2477  004A                     __end_of_MTOUCH_Proximity_Tick:	
  2478                           
  2479                           	psect	text15
  2480  0267                     __ptext15:	
  2481 ;; *************** function _Proximity_Tick_helper *****************
  2482 ;; Defined at:
  2483 ;;		line 279 in file "mcc_generated_files/mtouch/mtouch_proximity.c"
  2484 ;; Parameters:    Size  Location     Type
  2485 ;;  prox            1    wreg     PTR struct .
  2486 ;;		 -> mtouch_proximity(18), 
  2487 ;; Auto vars:     Size  Location     Type
  2488 ;;  prox            1    2[COMMON] PTR struct .
  2489 ;;		 -> mtouch_proximity(18), 
  2490 ;; Return value:  Size  Location     Type
  2491 ;;                  1    wreg      void 
  2492 ;; Registers used:
  2493 ;;		wreg, fsr1l, fsr1h, status,2, status,0
  2494 ;; Tracked objects:
  2495 ;;		On entry : 0/0
  2496 ;;		On exit  : 0/0
  2497 ;;		Unchanged: 0/0
  2498 ;; Data sizes:     COMMON   BANK0   BANK1   BANK2
  2499 ;;      Params:         0       0       0       0
  2500 ;;      Locals:         1       0       0       0
  2501 ;;      Temps:          2       0       0       0
  2502 ;;      Totals:         3       0       0       0
  2503 ;;Total ram usage:        3 bytes
  2504 ;; Hardware stack levels used:    1
  2505 ;; This function calls:
  2506 ;;		Nothing
  2507 ;; This function is called by:
  2508 ;;		_MTOUCH_Proximity_Tick
  2509 ;; This function uses a non-reentrant model
  2510 ;;
  2511                           
  2512                           
  2513                           ;psect for function _Proximity_Tick_helper
  2514  0267                     _Proximity_Tick_helper:	
  2515                           
  2516                           ;incstack = 0
  2517                           ; Regs used in _Proximity_Tick_helper: [wreg+fsr1l+fsr1h+status,2+status,0]
  2518                           ;Proximity_Tick_helper@prox stored from wreg
  2519  0267  00F2               	movwf	Proximity_Tick_helper@prox
  2520                           
  2521                           ;mcc_generated_files/mtouch/mtouch_proximity.c: 279: static void Proximity_Tick_helper(m
      +                          touch_proximity_t* prox);mcc_generated_files/mtouch/mtouch_proximity.c: 280: {;mcc_gener
      +                          ated_files/mtouch/mtouch_proximity.c: 282:     if ((prox->state) == MTOUCH_PROXIMITY_STA
      +                          TE_activated)
  2522  0268  0872               	movf	Proximity_Tick_helper@prox,w
  2523  0269  3E02               	addlw	2
  2524  026A  0086               	movwf	6
  2525  026B  0187               	clrf	7
  2526  026C  3002               	movlw	2
  2527  026D  0601               	xorwf	1,w
  2528  026E  1D03               	btfss	3,2
  2529  026F  0008               	return
  2530                           
  2531                           ;mcc_generated_files/mtouch/mtouch_proximity.c: 283:     {;mcc_generated_files/mtouch/mt
      +                          ouch_proximity.c: 284:         (prox->counter)++;
  2532  0270  0872               	movf	Proximity_Tick_helper@prox,w
  2533  0271  3E0C               	addlw	12
  2534  0272  0086               	movwf	6
  2535  0273  0187               	clrf	7
  2536  0274  3001               	movlw	1
  2537  0275  0781               	addwf	1,f
  2538  0276  3141               	addfsr 1,1
  2539  0277  1803               	skipnc
  2540  0278  0A81               	incf	1,f
  2541                           
  2542                           ;mcc_generated_files/mtouch/mtouch_proximity.c: 285:         if (prox->counter == (mtouc
      +                          h_prox_statecounter_t)0)
  2543  0279  0872               	movf	Proximity_Tick_helper@prox,w
  2544  027A  3E0C               	addlw	12
  2545  027B  0086               	movwf	6
  2546  027C  0187               	clrf	7
  2547  027D  0016               	moviw fsr1++
  2548  027E  0401               	iorwf	1,w
  2549  027F  1D03               	btfss	3,2
  2550  0280  0008               	return
  2551                           
  2552                           ;mcc_generated_files/mtouch/mtouch_proximity.c: 286:         {;mcc_generated_files/mtouc
      +                          h/mtouch_proximity.c: 287:             prox->counter = (mtouch_prox_statecounter_t)0xFFF
      +                          F;
  2553  0281  0872               	movf	Proximity_Tick_helper@prox,w
  2554  0282  3E0C               	addlw	12
  2555  0283  0086               	movwf	6
  2556  0284  0187               	clrf	7
  2557  0285  30FF               	movlw	255
  2558  0286  3FC0               	movwi [0]fsr1
  2559  0287  30FF               	movlw	255
  2560  0288  3FC1               	movwi [1]fsr1
  2561  0289  0008               	return
  2562  028A                     __end_of_Proximity_Tick_helper:	
  2563                           
  2564                           	psect	text16
  2565  014B                     __ptext16:	
  2566 ;; *************** function _MTOUCH_Sensor_Sampled_ResetAll *****************
  2567 ;; Defined at:
  2568 ;;		line 544 in file "mcc_generated_files/mtouch/mtouch_sensor.c"
  2569 ;; Parameters:    Size  Location     Type
  2570 ;;		None
  2571 ;; Auto vars:     Size  Location     Type
  2572 ;;  sensor          1    2[COMMON] PTR struct .
  2573 ;;		 -> mtouch_sensor(9), 
  2574 ;; Return value:  Size  Location     Type
  2575 ;;                  1    wreg      void 
  2576 ;; Registers used:
  2577 ;;		wreg, fsr1l, fsr1h, status,2, status,0, pclath, cstack
  2578 ;; Tracked objects:
  2579 ;;		On entry : 0/1
  2580 ;;		On exit  : 0/0
  2581 ;;		Unchanged: 0/0
  2582 ;; Data sizes:     COMMON   BANK0   BANK1   BANK2
  2583 ;;      Params:         0       0       0       0
  2584 ;;      Locals:         1       0       0       0
  2585 ;;      Temps:          1       0       0       0
  2586 ;;      Totals:         2       0       0       0
  2587 ;;Total ram usage:        2 bytes
  2588 ;; Hardware stack levels used:    1
  2589 ;; Hardware stack levels required when called:    1
  2590 ;; This function calls:
  2591 ;;		_Sensor_Sampled_Reset
  2592 ;; This function is called by:
  2593 ;;		_MTOUCH_Initialize
  2594 ;;		_MTOUCH_Service_Mainloop
  2595 ;; This function uses a non-reentrant model
  2596 ;;
  2597                           
  2598                           
  2599                           ;psect for function _MTOUCH_Sensor_Sampled_ResetAll
  2600  014B                     _MTOUCH_Sensor_Sampled_ResetAll:	
  2601                           
  2602                           ;mcc_generated_files/mtouch/mtouch_sensor.c: 546:     mtouch_sensor_t* sensor;;mcc_gener
      +                          ated_files/mtouch/mtouch_sensor.c: 547:     for(sensor = &mtouch_sensor[0];sensor<= &mto
      +                          uch_sensor[1u -1];sensor++)
  2603                           
  2604                           ;incstack = 0
  2605                           ; Regs used in _MTOUCH_Sensor_Sampled_ResetAll: [wreg+fsr1l+fsr1h+status,2+status,0+pcla
      +                          th+cstack]
  2606  014B  304B               	movlw	(low (_mtouch_sensor| 0))& (0+255)
  2607  014C  00F1               	movwf	??_MTOUCH_Sensor_Sampled_ResetAll
  2608  014D  0871               	movf	??_MTOUCH_Sensor_Sampled_ResetAll,w
  2609  014E  00F2               	movwf	MTOUCH_Sensor_Sampled_ResetAll@sensor
  2610  014F                     L1:	
  2611  014F  304B               	movlw	(low (_mtouch_sensor| 0))& (0+255)
  2612  0150  00F1               	movwf	??_MTOUCH_Sensor_Sampled_ResetAll
  2613  0151  0872               	movf	MTOUCH_Sensor_Sampled_ResetAll@sensor,w
  2614  0152  0271               	subwf	??_MTOUCH_Sensor_Sampled_ResetAll,w
  2615  0153  1C03               	btfss	3,0
  2616  0154  0008               	return
  2617                           
  2618                           ;mcc_generated_files/mtouch/mtouch_sensor.c: 548:     {;mcc_generated_files/mtouch/mtouc
      +                          h_sensor.c: 549:         Sensor_Sampled_Reset(sensor);
  2619  0155  0872               	movf	MTOUCH_Sensor_Sampled_ResetAll@sensor,w
  2620  0156  2089               	fcall	_Sensor_Sampled_Reset
  2621                           
  2622                           ;mcc_generated_files/mtouch/mtouch_sensor.c: 550:     }
  2623  0157  3009               	movlw	9
  2624  0158  00F1               	movwf	??_MTOUCH_Sensor_Sampled_ResetAll
  2625  0159  0871               	movf	??_MTOUCH_Sensor_Sampled_ResetAll,w
  2626  015A  07F2               	addwf	MTOUCH_Sensor_Sampled_ResetAll@sensor,f
  2627  015B  294F               	goto	L1
  2628  015C                     __end_of_MTOUCH_Sensor_Sampled_ResetAll:	
  2629                           
  2630                           	psect	text17
  2631  0089                     __ptext17:	
  2632 ;; *************** function _Sensor_Sampled_Reset *****************
  2633 ;; Defined at:
  2634 ;;		line 561 in file "mcc_generated_files/mtouch/mtouch_sensor.c"
  2635 ;; Parameters:    Size  Location     Type
  2636 ;;  sensor          1    wreg     PTR struct .
  2637 ;;		 -> mtouch_sensor(9), 
  2638 ;; Auto vars:     Size  Location     Type
  2639 ;;  sensor          1    0[COMMON] PTR struct .
  2640 ;;		 -> mtouch_sensor(9), 
  2641 ;; Return value:  Size  Location     Type
  2642 ;;                  1    wreg      void 
  2643 ;; Registers used:
  2644 ;;		wreg, fsr1l, fsr1h, status,2, status,0
  2645 ;; Tracked objects:
  2646 ;;		On entry : 0/1
  2647 ;;		On exit  : 0/0
  2648 ;;		Unchanged: 0/0
  2649 ;; Data sizes:     COMMON   BANK0   BANK1   BANK2
  2650 ;;      Params:         0       0       0       0
  2651 ;;      Locals:         1       0       0       0
  2652 ;;      Temps:          0       0       0       0
  2653 ;;      Totals:         1       0       0       0
  2654 ;;Total ram usage:        1 bytes
  2655 ;; Hardware stack levels used:    1
  2656 ;; This function calls:
  2657 ;;		Nothing
  2658 ;; This function is called by:
  2659 ;;		_MTOUCH_Sensor_Initialize
  2660 ;;		_MTOUCH_Sensor_Sampled_ResetAll
  2661 ;; This function uses a non-reentrant model
  2662 ;;
  2663                           
  2664                           
  2665                           ;psect for function _Sensor_Sampled_Reset
  2666  0089                     _Sensor_Sampled_Reset:	
  2667                           
  2668                           ;incstack = 0
  2669                           ; Regs used in _Sensor_Sampled_Reset: [wreg+fsr1l+fsr1h+status,2+status,0]
  2670                           ;Sensor_Sampled_Reset@sensor stored from wreg
  2671  0089  00F0               	movwf	Sensor_Sampled_Reset@sensor
  2672                           
  2673                           ;mcc_generated_files/mtouch/mtouch_sensor.c: 561: static __attribute__((inline)) void Se
      +                          nsor_Sampled_Reset(mtouch_sensor_t* sensor);mcc_generated_files/mtouch/mtouch_sensor.c: 
      +                          562: {;mcc_generated_files/mtouch/mtouch_sensor.c: 563:     sensor->sampled = 0;
  2674  008A  0870               	movf	Sensor_Sampled_Reset@sensor,w
  2675  008B  3E08               	addlw	8
  2676  008C  0086               	movwf	6
  2677  008D  0187               	clrf	7
  2678  008E  1081               	bcf	1,1
  2679  008F  0008               	return
  2680  0090                     __end_of_Sensor_Sampled_Reset:	
  2681                           
  2682                           	psect	text18
  2683  013A                     __ptext18:	
  2684 ;; *************** function _MTOUCH_Sensor_SampleAll *****************
  2685 ;; Defined at:
  2686 ;;		line 185 in file "mcc_generated_files/mtouch/mtouch_sensor.c"
  2687 ;; Parameters:    Size  Location     Type
  2688 ;;		None
  2689 ;; Auto vars:     Size  Location     Type
  2690 ;;  sensor          1    9[BANK0 ] enum E1336
  2691 ;; Return value:  Size  Location     Type
  2692 ;;                  1    wreg      _Bool 
  2693 ;; Registers used:
  2694 ;;		wreg, fsr0l, fsr0h, fsr1l, fsr1h, status,2, status,0, pclath, cstack
  2695 ;; Tracked objects:
  2696 ;;		On entry : 1F/0
  2697 ;;		On exit  : 1F/0
  2698 ;;		Unchanged: 0/0
  2699 ;; Data sizes:     COMMON   BANK0   BANK1   BANK2
  2700 ;;      Params:         0       0       0       0
  2701 ;;      Locals:         0       1       0       0
  2702 ;;      Temps:          0       1       0       0
  2703 ;;      Totals:         0       2       0       0
  2704 ;;Total ram usage:        2 bytes
  2705 ;; Hardware stack levels used:    1
  2706 ;; Hardware stack levels required when called:    5
  2707 ;; This function calls:
  2708 ;;		_Sensor_Service
  2709 ;; This function is called by:
  2710 ;;		_MTOUCH_Service_Mainloop
  2711 ;; This function uses a non-reentrant model
  2712 ;;
  2713                           
  2714                           
  2715                           ;psect for function _MTOUCH_Sensor_SampleAll
  2716  013A                     _MTOUCH_Sensor_SampleAll:	
  2717                           
  2718                           ;mcc_generated_files/mtouch/mtouch_sensor.c: 187:     enum mtouch_sensor_names sensor;;m
      +                          cc_generated_files/mtouch/mtouch_sensor.c: 188:     for (sensor = 0; sensor < 1u; sensor
      +                          ++)
  2719                           
  2720                           ;incstack = 0
  2721                           ; Regs used in _MTOUCH_Sensor_SampleAll: [wreg-fsr1h+status,2+status,0+pclath+cstack]
  2722  013A  01DD               	clrf	MTOUCH_Sensor_SampleAll@sensor
  2723  013B                     l2253:	
  2724                           
  2725                           ;mcc_generated_files/mtouch/mtouch_sensor.c: 189:     {;mcc_generated_files/mtouch/mtouc
      +                          h_sensor.c: 190:         if(Sensor_Service(sensor)!= MTOUCH_SENSOR_ERROR_none)
  2726  013B  085D               	movf	MTOUCH_Sensor_SampleAll@sensor,w
  2727  013C  23F8               	fcall	_Sensor_Service
  2728  013D  3A00               	xorlw	0
  2729  013E  1903               	skipnz
  2730  013F  2942               	goto	l2259
  2731                           
  2732                           ;mcc_generated_files/mtouch/mtouch_sensor.c: 191:             return 0;
  2733  0140  3000               	movlw	0
  2734  0141  0008               	return
  2735  0142                     l2259:	
  2736                           
  2737                           ;mcc_generated_files/mtouch/mtouch_sensor.c: 192:     }
  2738  0142  3001               	movlw	1
  2739  0143  00DC               	movwf	??_MTOUCH_Sensor_SampleAll
  2740  0144  085C               	movf	??_MTOUCH_Sensor_SampleAll,w
  2741  0145  07DD               	addwf	MTOUCH_Sensor_SampleAll@sensor,f
  2742  0146  085D               	movf	MTOUCH_Sensor_SampleAll@sensor,w
  2743  0147  1903               	btfsc	3,2
  2744  0148  293B               	goto	l2253
  2745                           
  2746                           ;mcc_generated_files/mtouch/mtouch_sensor.c: 193:     return 1;
  2747  0149  3001               	movlw	1
  2748  014A  0008               	return
  2749  014B                     __end_of_MTOUCH_Sensor_SampleAll:	
  2750                           
  2751                           	psect	text19
  2752  03F8                     __ptext19:	
  2753 ;; *************** function _Sensor_Service *****************
  2754 ;; Defined at:
  2755 ;;		line 230 in file "mcc_generated_files/mtouch/mtouch_sensor.c"
  2756 ;; Parameters:    Size  Location     Type
  2757 ;;  name            1    wreg     enum E1336
  2758 ;; Auto vars:     Size  Location     Type
  2759 ;;  name            1    5[BANK0 ] enum E1336
  2760 ;;  sensor          1    7[BANK0 ] PTR struct .
  2761 ;;		 -> mtouch_sensor(9), 
  2762 ;;  error           1    6[BANK0 ] enum E1338
  2763 ;; Return value:  Size  Location     Type
  2764 ;;                  1    wreg      enum E1338
  2765 ;; Registers used:
  2766 ;;		wreg, fsr0l, fsr0h, fsr1l, fsr1h, status,2, status,0, pclath, cstack
  2767 ;; Tracked objects:
  2768 ;;		On entry : 1F/0
  2769 ;;		On exit  : 1F/0
  2770 ;;		Unchanged: 0/0
  2771 ;; Data sizes:     COMMON   BANK0   BANK1   BANK2
  2772 ;;      Params:         0       0       0       0
  2773 ;;      Locals:         0       3       0       0
  2774 ;;      Temps:          0       2       0       0
  2775 ;;      Totals:         0       5       0       0
  2776 ;;Total ram usage:        5 bytes
  2777 ;; Hardware stack levels used:    1
  2778 ;; Hardware stack levels required when called:    4
  2779 ;; This function calls:
  2780 ;;		_Sensor_Acquisition
  2781 ;;		_Sensor_DefaultCallback
  2782 ;;		_Sensor_RawSample_Update
  2783 ;;		_Sensor_isEnabled
  2784 ;;		_Sensor_setSampled
  2785 ;;		___bmul
  2786 ;; This function is called by:
  2787 ;;		_MTOUCH_Sensor_SampleAll
  2788 ;; This function uses a non-reentrant model
  2789 ;;
  2790                           
  2791                           
  2792                           ;psect for function _Sensor_Service
  2793  03F8                     _Sensor_Service:	
  2794                           
  2795                           ;incstack = 0
  2796                           ; Regs used in _Sensor_Service: [wreg-fsr1h+status,2+status,0+pclath+cstack]
  2797                           ;Sensor_Service@name stored from wreg
  2798  03F8  00D9               	movwf	Sensor_Service@name
  2799                           
  2800                           ;mcc_generated_files/mtouch/mtouch_sensor.c: 230: static enum mtouch_sensor_error Sensor
      +                          _Service(enum mtouch_sensor_names name);mcc_generated_files/mtouch/mtouch_sensor.c: 231:
      +                           {;mcc_generated_files/mtouch/mtouch_sensor.c: 232:     mtouch_sensor_t* sensor = &mtouc
      +                          h_sensor[name];
  2801  03F9  3009               	movlw	9
  2802  03FA  00D7               	movwf	??_Sensor_Service
  2803  03FB  0857               	movf	??_Sensor_Service,w
  2804  03FC  00F0               	movwf	___bmul@multiplicand
  2805  03FD  0859               	movf	Sensor_Service@name,w
  2806  03FE  2129               	fcall	___bmul
  2807  03FF  3E4B               	addlw	(low (_mtouch_sensor| 0))& (0+255)
  2808  0400  0020               	movlb	0	; select bank0
  2809  0401  00D8               	movwf	??_Sensor_Service+1
  2810  0402  0858               	movf	??_Sensor_Service+1,w
  2811  0403  00DB               	movwf	Sensor_Service@sensor
  2812                           
  2813                           ;mcc_generated_files/mtouch/mtouch_sensor.c: 233:     enum mtouch_sensor_error error = S
      +                          ensor_Acquisition(sensor);
  2814  0404  085B               	movf	Sensor_Service@sensor,w
  2815  0405  234D               	fcall	_Sensor_Acquisition
  2816  0406  00D7               	movwf	??_Sensor_Service
  2817  0407  0857               	movf	??_Sensor_Service,w
  2818  0408  00DA               	movwf	Sensor_Service@error
  2819                           
  2820                           ;mcc_generated_files/mtouch/mtouch_sensor.c: 236:     switch(error)
  2821  0409  2C19               	goto	l2203
  2822  040A                     l2195:	
  2823                           
  2824                           ;mcc_generated_files/mtouch/mtouch_sensor.c: 241:             {;mcc_generated_files/mtou
      +                          ch/mtouch_sensor.c: 246:                 if(!lowpowerActivated)
  2825  040A  085B               	movf	Sensor_Service@sensor,w
  2826  040B  20C3               	fcall	_Sensor_isEnabled
  2827  040C  3A00               	xorlw	0
  2828  040D  1903               	skipnz
  2829  040E  2C36               	goto	l2205
  2830                           
  2831                           ;mcc_generated_files/mtouch/mtouch_sensor.c: 247:                 {;mcc_generated_files/
      +                          mtouch/mtouch_sensor.c: 248:                     Sensor_RawSample_Update(sensor);
  2832  040F  085B               	movf	Sensor_Service@sensor,w
  2833  0410  21E2               	fcall	_Sensor_RawSample_Update
  2834                           
  2835                           ;mcc_generated_files/mtouch/mtouch_sensor.c: 250:                 Sensor_setSampled(sens
      +                          or);
  2836                           
  2837                           ;mcc_generated_files/mtouch/mtouch_sensor.c: 249:                 }
  2838  0411  085B               	movf	Sensor_Service@sensor,w
  2839  0412  2082               	fcall	_Sensor_setSampled
  2840                           
  2841                           ;mcc_generated_files/mtouch/mtouch_sensor.c: 251:                 callback_sampled(name)
      +                          ;
  2842  0413  0859               	movf	Sensor_Service@name,w
  2843  0414  00D7               	movwf	??_Sensor_Service
  2844  0415  0857               	movf	??_Sensor_Service,w
  2845  0416  00F0               	movwf	Sensor_DefaultCallback@sensor
  2846  0417  203D               	fcall	_Sensor_DefaultCallback
  2847  0418  2C36               	goto	l2205
  2848  0419                     l2203:	
  2849  0419  085A               	movf	Sensor_Service@error,w
  2850  041A  00D7               	movwf	??_Sensor_Service
  2851  041B  01D8               	clrf	??_Sensor_Service+1
  2852  041C  1BD7               	btfsc	??_Sensor_Service,7
  2853  041D  03D8               	decf	??_Sensor_Service+1,f
  2854                           
  2855                           ; Switch on 2 bytes has been partitioned into a top level switch of size 1, and 2 sub-sw
      +                          itches
  2856                           ; Switch size 1, requested type "simple"
  2857                           ; Number of cases is 2, Range of values is 0 to 255
  2858                           ; switch strategies available:
  2859                           ; Name         Instructions Cycles
  2860                           ; simple_byte            7     4 (average)
  2861                           ; jumptable            260     6 (fixed)
  2862                           ;	Chosen strategy is simple_byte
  2863  041E  0858               	movf	??_Sensor_Service+1,w
  2864  041F  3A00               	xorlw	0	; case 0
  2865  0420  1903               	skipnz
  2866  0421  2C26               	goto	l2417
  2867  0422  3AFF               	xorlw	255	; case 255
  2868  0423  1903               	skipnz
  2869  0424  2C2B               	goto	l2419
  2870  0425  2C36               	goto	l2205
  2871  0426                     l2417:	
  2872                           
  2873                           ; Switch size 1, requested type "simple"
  2874                           ; Number of cases is 1, Range of values is 0 to 0
  2875                           ; switch strategies available:
  2876                           ; Name         Instructions Cycles
  2877                           ; simple_byte            4     3 (average)
  2878                           ; direct_byte            8     6 (fixed)
  2879                           ; jumptable            260     6 (fixed)
  2880                           ;	Chosen strategy is simple_byte
  2881  0426  0857               	movf	??_Sensor_Service,w
  2882  0427  3A00               	xorlw	0	; case 0
  2883  0428  1903               	skipnz
  2884  0429  2C0A               	goto	l2195
  2885  042A  2C36               	goto	l2205
  2886  042B                     l2419:	
  2887                           
  2888                           ; Switch size 1, requested type "simple"
  2889                           ; Number of cases is 3, Range of values is 253 to 255
  2890                           ; switch strategies available:
  2891                           ; Name         Instructions Cycles
  2892                           ; simple_byte           10     6 (average)
  2893                           ; direct_byte           11     5 (fixed)
  2894                           ; jumptable            263     9 (fixed)
  2895                           ;	Chosen strategy is simple_byte
  2896  042B  0857               	movf	??_Sensor_Service,w
  2897  042C  3AFD               	xorlw	253	; case 253
  2898  042D  1903               	skipnz
  2899  042E  2C36               	goto	l2205
  2900  042F  3A03               	xorlw	3	; case 254
  2901  0430  1903               	skipnz
  2902  0431  2C36               	goto	l2205
  2903  0432  3A01               	xorlw	1	; case 255
  2904  0433  1903               	skipnz
  2905  0434  2C36               	goto	l2205
  2906  0435  2C36               	goto	l2205
  2907  0436                     l2205:	
  2908                           
  2909                           ;mcc_generated_files/mtouch/mtouch_sensor.c: 263:     return error;
  2910  0436  085A               	movf	Sensor_Service@error,w
  2911  0437  0008               	return
  2912  0438                     __end_of_Sensor_Service:	
  2913                           
  2914                           	psect	text20
  2915  0082                     __ptext20:	
  2916 ;; *************** function _Sensor_setSampled *****************
  2917 ;; Defined at:
  2918 ;;		line 566 in file "mcc_generated_files/mtouch/mtouch_sensor.c"
  2919 ;; Parameters:    Size  Location     Type
  2920 ;;  sensor          1    wreg     PTR struct .
  2921 ;;		 -> mtouch_sensor(9), 
  2922 ;; Auto vars:     Size  Location     Type
  2923 ;;  sensor          1    0[COMMON] PTR struct .
  2924 ;;		 -> mtouch_sensor(9), 
  2925 ;; Return value:  Size  Location     Type
  2926 ;;                  1    wreg      void 
  2927 ;; Registers used:
  2928 ;;		wreg, fsr1l, fsr1h, status,2, status,0
  2929 ;; Tracked objects:
  2930 ;;		On entry : 1F/0
  2931 ;;		On exit  : 1F/0
  2932 ;;		Unchanged: 1F/0
  2933 ;; Data sizes:     COMMON   BANK0   BANK1   BANK2
  2934 ;;      Params:         0       0       0       0
  2935 ;;      Locals:         1       0       0       0
  2936 ;;      Temps:          0       0       0       0
  2937 ;;      Totals:         1       0       0       0
  2938 ;;Total ram usage:        1 bytes
  2939 ;; Hardware stack levels used:    1
  2940 ;; This function calls:
  2941 ;;		Nothing
  2942 ;; This function is called by:
  2943 ;;		_Sensor_Service
  2944 ;; This function uses a non-reentrant model
  2945 ;;
  2946                           
  2947                           
  2948                           ;psect for function _Sensor_setSampled
  2949  0082                     _Sensor_setSampled:	
  2950                           
  2951                           ;incstack = 0
  2952                           ; Regs used in _Sensor_setSampled: [wreg+fsr1l+fsr1h+status,2+status,0]
  2953                           ;Sensor_setSampled@sensor stored from wreg
  2954  0082  00F0               	movwf	Sensor_setSampled@sensor
  2955                           
  2956                           ;mcc_generated_files/mtouch/mtouch_sensor.c: 566: static __attribute__((inline)) void Se
      +                          nsor_setSampled(mtouch_sensor_t* sensor);mcc_generated_files/mtouch/mtouch_sensor.c: 567
      +                          : {;mcc_generated_files/mtouch/mtouch_sensor.c: 568:     sensor->sampled = 1;
  2957  0083  0870               	movf	Sensor_setSampled@sensor,w
  2958  0084  3E08               	addlw	8
  2959  0085  0086               	movwf	6
  2960  0086  0187               	clrf	7
  2961  0087  1481               	bsf	1,1
  2962  0088  0008               	return
  2963  0089                     __end_of_Sensor_setSampled:	
  2964                           
  2965                           	psect	text21
  2966  01E2                     __ptext21:	
  2967 ;; *************** function _Sensor_RawSample_Update *****************
  2968 ;; Defined at:
  2969 ;;		line 427 in file "mcc_generated_files/mtouch/mtouch_sensor.c"
  2970 ;; Parameters:    Size  Location     Type
  2971 ;;  sensor          1    wreg     PTR struct .
  2972 ;;		 -> mtouch_sensor(9), 
  2973 ;; Auto vars:     Size  Location     Type
  2974 ;;  sensor          1    0[COMMON] PTR struct .
  2975 ;;		 -> mtouch_sensor(9), 
  2976 ;; Return value:  Size  Location     Type
  2977 ;;                  1    wreg      void 
  2978 ;; Registers used:
  2979 ;;		wreg, fsr1l, fsr1h, status,2, status,0
  2980 ;; Tracked objects:
  2981 ;;		On entry : 1F/0
  2982 ;;		On exit  : 1F/0
  2983 ;;		Unchanged: 0/0
  2984 ;; Data sizes:     COMMON   BANK0   BANK1   BANK2
  2985 ;;      Params:         0       0       0       0
  2986 ;;      Locals:         1       0       0       0
  2987 ;;      Temps:          0       0       0       0
  2988 ;;      Totals:         1       0       0       0
  2989 ;;Total ram usage:        1 bytes
  2990 ;; Hardware stack levels used:    1
  2991 ;; This function calls:
  2992 ;;		Nothing
  2993 ;; This function is called by:
  2994 ;;		_Sensor_Service
  2995 ;; This function uses a non-reentrant model
  2996 ;;
  2997                           
  2998                           
  2999                           ;psect for function _Sensor_RawSample_Update
  3000  01E2                     _Sensor_RawSample_Update:	
  3001                           
  3002                           ;incstack = 0
  3003                           ; Regs used in _Sensor_RawSample_Update: [wreg+fsr1l+fsr1h+status,2+status,0]
  3004                           ;Sensor_RawSample_Update@sensor stored from wreg
  3005  01E2  00F0               	movwf	Sensor_RawSample_Update@sensor
  3006  01E3  1F8B               	btfss	11,7	;volatile
  3007  01E4  29F0               	goto	l2057
  3008  01E5  138B               	bcf	11,7	;volatile
  3009  01E6  0870               	movf	Sensor_RawSample_Update@sensor,w
  3010  01E7  3E06               	addlw	6
  3011  01E8  0086               	movwf	6
  3012  01E9  0187               	clrf	7
  3013  01EA  0820               	movf	_packet_sample,w
  3014  01EB  3FC0               	movwi [0]fsr1
  3015  01EC  0821               	movf	_packet_sample+1,w
  3016  01ED  3FC1               	movwi [1]fsr1
  3017  01EE  178B               	bsf	11,7	;volatile
  3018  01EF  0008               	return
  3019  01F0                     l2057:	
  3020  01F0  0870               	movf	Sensor_RawSample_Update@sensor,w
  3021  01F1  3E06               	addlw	6
  3022  01F2  0086               	movwf	6
  3023  01F3  0187               	clrf	7
  3024  01F4  0820               	movf	_packet_sample,w
  3025  01F5  3FC0               	movwi [0]fsr1
  3026  01F6  0821               	movf	_packet_sample+1,w
  3027  01F7  3FC1               	movwi [1]fsr1
  3028  01F8  0008               	return
  3029  01F9                     __end_of_Sensor_RawSample_Update:	
  3030                           
  3031                           	psect	text22
  3032  003D                     __ptext22:	
  3033 ;; *************** function _Sensor_DefaultCallback *****************
  3034 ;; Defined at:
  3035 ;;		line 447 in file "mcc_generated_files/mtouch/mtouch_sensor.c"
  3036 ;; Parameters:    Size  Location     Type
  3037 ;;  sensor          1    0[COMMON] enum E1336
  3038 ;; Auto vars:     Size  Location     Type
  3039 ;;		None
  3040 ;; Return value:  Size  Location     Type
  3041 ;;                  1    wreg      void 
  3042 ;; Registers used:
  3043 ;;		None
  3044 ;; Tracked objects:
  3045 ;;		On entry : 1F/0
  3046 ;;		On exit  : 1F/0
  3047 ;;		Unchanged: 1F/0
  3048 ;; Data sizes:     COMMON   BANK0   BANK1   BANK2
  3049 ;;      Params:         1       0       0       0
  3050 ;;      Locals:         0       0       0       0
  3051 ;;      Temps:          0       0       0       0
  3052 ;;      Totals:         1       0       0       0
  3053 ;;Total ram usage:        1 bytes
  3054 ;; Hardware stack levels used:    1
  3055 ;; This function calls:
  3056 ;;		Nothing
  3057 ;; This function is called by:
  3058 ;;		_Sensor_Service
  3059 ;; This function uses a non-reentrant model
  3060 ;;
  3061                           
  3062                           
  3063                           ;psect for function _Sensor_DefaultCallback
  3064  003D                     _Sensor_DefaultCallback:	
  3065                           
  3066                           ;incstack = 0
  3067                           ; Regs used in _Sensor_DefaultCallback: []
  3068  003D  0008               	return
  3069  003E                     __end_of_Sensor_DefaultCallback:	
  3070                           
  3071                           	psect	text23
  3072  034D                     __ptext23:	
  3073 ;; *************** function _Sensor_Acquisition *****************
  3074 ;; Defined at:
  3075 ;;		line 277 in file "mcc_generated_files/mtouch/mtouch_sensor.c"
  3076 ;; Parameters:    Size  Location     Type
  3077 ;;  sensor          1    wreg     PTR struct .
  3078 ;;		 -> mtouch_sensor(9), 
  3079 ;; Auto vars:     Size  Location     Type
  3080 ;;  sensor          1    2[BANK0 ] PTR struct .
  3081 ;;		 -> mtouch_sensor(9), 
  3082 ;;  retry           1    1[BANK0 ] unsigned char 
  3083 ;; Return value:  Size  Location     Type
  3084 ;;                  1    wreg      enum E1338
  3085 ;; Registers used:
  3086 ;;		wreg, fsr0l, fsr0h, fsr1l, fsr1h, status,2, status,0, pclath, cstack
  3087 ;; Tracked objects:
  3088 ;;		On entry : 1F/0
  3089 ;;		On exit  : 1F/0
  3090 ;;		Unchanged: 0/0
  3091 ;; Data sizes:     COMMON   BANK0   BANK1   BANK2
  3092 ;;      Params:         0       0       0       0
  3093 ;;      Locals:         0       2       0       0
  3094 ;;      Temps:          0       1       0       0
  3095 ;;      Totals:         0       3       0       0
  3096 ;;Total ram usage:        3 bytes
  3097 ;; Hardware stack levels used:    1
  3098 ;; Hardware stack levels required when called:    3
  3099 ;; This function calls:
  3100 ;;		_Sensor_Acq_ExecutePacket
  3101 ;;		_Sensor_isEnabled
  3102 ;;		_Sensor_setActive
  3103 ;;		_Sensor_setInactive
  3104 ;;		_abs
  3105 ;; This function is called by:
  3106 ;;		_Sensor_Service
  3107 ;; This function uses a non-reentrant model
  3108 ;;
  3109                           
  3110                           
  3111                           ;psect for function _Sensor_Acquisition
  3112  034D                     _Sensor_Acquisition:	
  3113                           
  3114                           ;incstack = 0
  3115                           ; Regs used in _Sensor_Acquisition: [wreg-fsr1h+status,2+status,0+pclath+cstack]
  3116                           ;Sensor_Acquisition@sensor stored from wreg
  3117  034D  00D6               	movwf	Sensor_Acquisition@sensor
  3118                           
  3119                           ;mcc_generated_files/mtouch/mtouch_sensor.c: 277: static enum mtouch_sensor_error Sensor
      +                          _Acquisition(mtouch_sensor_t* sensor);mcc_generated_files/mtouch/mtouch_sensor.c: 278: {
      +                          ;mcc_generated_files/mtouch/mtouch_sensor.c: 280:     uint8_t retry = (uint8_t)5u;
  3120  034E  3005               	movlw	5
  3121  034F  00D4               	movwf	??_Sensor_Acquisition
  3122  0350  0854               	movf	??_Sensor_Acquisition,w
  3123  0351  00D5               	movwf	Sensor_Acquisition@retry
  3124                           
  3125                           ;mcc_generated_files/mtouch/mtouch_sensor.c: 282:     if(!Sensor_isEnabled(sensor))
  3126  0352  0856               	movf	Sensor_Acquisition@sensor,w
  3127  0353  20C3               	fcall	_Sensor_isEnabled
  3128  0354  3A00               	xorlw	0
  3129  0355  1D03               	skipz
  3130  0356  2B60               	goto	l2037
  3131  0357                     l2027:	
  3132                           
  3133                           ;mcc_generated_files/mtouch/mtouch_sensor.c: 283:         return MTOUCH_SENSOR_ERROR_non
      +                          e;
  3134  0357  3000               	movlw	0
  3135  0358  0008               	return
  3136  0359                     l2031:	
  3137                           
  3138                           ;mcc_generated_files/mtouch/mtouch_sensor.c: 286:     {;mcc_generated_files/mtouch/mtouc
      +                          h_sensor.c: 287:         retry--;
  3139  0359  3001               	movlw	1
  3140  035A  02D5               	subwf	Sensor_Acquisition@retry,f
  3141                           
  3142                           ;mcc_generated_files/mtouch/mtouch_sensor.c: 288:         if(retry == 0)
  3143  035B  0855               	movf	Sensor_Acquisition@retry,w
  3144  035C  1D03               	btfss	3,2
  3145  035D  2B60               	goto	l2037
  3146                           
  3147                           ;mcc_generated_files/mtouch/mtouch_sensor.c: 289:         {;mcc_generated_files/mtouch/m
      +                          touch_sensor.c: 290:             return MTOUCH_SENSOR_ERROR_tooManyRetries;
  3148  035E  30FC               	movlw	252
  3149  035F  0008               	return
  3150  0360                     l2037:	
  3151                           
  3152                           ;mcc_generated_files/mtouch/mtouch_sensor.c: 285:     while(Sensor_Acq_ExecutePacket(sen
      +                          sor))
  3153  0360  0856               	movf	Sensor_Acquisition@sensor,w
  3154  0361  2438               	fcall	_Sensor_Acq_ExecutePacket
  3155  0362  3A00               	xorlw	0
  3156  0363  1D03               	skipz
  3157  0364  2B59               	goto	l2031
  3158                           
  3159                           ;mcc_generated_files/mtouch/mtouch_sensor.c: 294:     if((mtouch_sensor_packetsample_t)a
      +                          bs(packet_sample - sensor->rawSample) > 100u)
  3160  0365  0856               	movf	Sensor_Acquisition@sensor,w
  3161  0366  3E06               	addlw	6
  3162  0367  0086               	movwf	6
  3163  0368  0187               	clrf	7
  3164  0369  3F40               	moviw [0]fsr1
  3165  036A  0220               	subwf	_packet_sample,w
  3166  036B  00F0               	movwf	abs@a
  3167  036C  3F41               	moviw [1]fsr1
  3168  036D  3B21               	subwfb	_packet_sample+1,w
  3169  036E  00F1               	movwf	abs@a+1
  3170  036F  21CB               	fcall	_abs
  3171  0370  3000               	movlw	0
  3172  0371  0271               	subwf	?_abs+1,w
  3173  0372  3065               	movlw	101
  3174  0373  1903               	skipnz
  3175  0374  0270               	subwf	?_abs,w
  3176  0375  1C03               	skipc
  3177  0376  2B7B               	goto	l2043
  3178                           
  3179                           ;mcc_generated_files/mtouch/mtouch_sensor.c: 295:     {;mcc_generated_files/mtouch/mtouc
      +                          h_sensor.c: 296:         Sensor_setActive(sensor);
  3180  0377  0020               	movlb	0	; select bank0
  3181  0378  0856               	movf	Sensor_Acquisition@sensor,w
  3182  0379  2074               	fcall	_Sensor_setActive
  3183                           
  3184                           ;mcc_generated_files/mtouch/mtouch_sensor.c: 297:     }
  3185  037A  2B57               	goto	l2027
  3186  037B                     l2043:	
  3187                           
  3188                           ;mcc_generated_files/mtouch/mtouch_sensor.c: 299:     {;mcc_generated_files/mtouch/mtouc
      +                          h_sensor.c: 300:         Sensor_setInactive(sensor);
  3189  037B  0020               	movlb	0	; select bank0
  3190  037C  0856               	movf	Sensor_Acquisition@sensor,w
  3191  037D  207B               	fcall	_Sensor_setInactive
  3192  037E  2B57               	goto	l2027
  3193  037F                     __end_of_Sensor_Acquisition:	
  3194                           
  3195                           	psect	text24
  3196  01CB                     __ptext24:	
  3197 ;; *************** function _abs *****************
  3198 ;; Defined at:
  3199 ;;		line 1 in file "C:\Program Files (x86)\Microchip\xc8\v2.10\pic\sources\c99\common\abs.c"
  3200 ;; Parameters:    Size  Location     Type
  3201 ;;  a               2    0[COMMON] int 
  3202 ;; Auto vars:     Size  Location     Type
  3203 ;;		None
  3204 ;; Return value:  Size  Location     Type
  3205 ;;                  2    0[COMMON] int 
  3206 ;; Registers used:
  3207 ;;		wreg, status,2, status,0
  3208 ;; Tracked objects:
  3209 ;;		On entry : 1F/0
  3210 ;;		On exit  : 0/0
  3211 ;;		Unchanged: 0/0
  3212 ;; Data sizes:     COMMON   BANK0   BANK1   BANK2
  3213 ;;      Params:         2       0       0       0
  3214 ;;      Locals:         0       0       0       0
  3215 ;;      Temps:          2       0       0       0
  3216 ;;      Totals:         4       0       0       0
  3217 ;;Total ram usage:        4 bytes
  3218 ;; Hardware stack levels used:    1
  3219 ;; This function calls:
  3220 ;;		Nothing
  3221 ;; This function is called by:
  3222 ;;		_Sensor_Acquisition
  3223 ;; This function uses a non-reentrant model
  3224 ;;
  3225                           
  3226                           
  3227                           ;psect for function _abs
  3228  01CB                     _abs:	
  3229                           
  3230                           ;incstack = 0
  3231                           ; Regs used in _abs: [wreg+status,2+status,0]
  3232  01CB  0871               	movf	abs@a+1,w
  3233  01CC  3A80               	xorlw	128
  3234  01CD  00F2               	movwf	??_abs
  3235  01CE  3080               	movlw	128
  3236  01CF  0272               	subwf	??_abs,w
  3237  01D0  1D03               	skipz
  3238  01D1  29D4               	goto	u815
  3239  01D2  3001               	movlw	1
  3240  01D3  0270               	subwf	abs@a,w
  3241  01D4                     u815:	
  3242  01D4  1803               	skipnc
  3243  01D5  0008               	return
  3244  01D6  0970               	comf	abs@a,w
  3245  01D7  00F2               	movwf	??_abs
  3246  01D8  0971               	comf	abs@a+1,w
  3247  01D9  00F3               	movwf	??_abs+1
  3248  01DA  0AF2               	incf	??_abs,f
  3249  01DB  1903               	skipnz
  3250  01DC  0AF3               	incf	??_abs+1,f
  3251  01DD  0872               	movf	??_abs,w
  3252  01DE  00F0               	movwf	?_abs
  3253  01DF  0873               	movf	??_abs+1,w
  3254  01E0  00F1               	movwf	?_abs+1
  3255  01E1  0008               	return
  3256  01E2                     __end_of_abs:	
  3257                           
  3258                           	psect	text25
  3259  007B                     __ptext25:	
  3260 ;; *************** function _Sensor_setInactive *****************
  3261 ;; Defined at:
  3262 ;;		line 512 in file "mcc_generated_files/mtouch/mtouch_sensor.c"
  3263 ;; Parameters:    Size  Location     Type
  3264 ;;  sensor          1    wreg     PTR struct .
  3265 ;;		 -> mtouch_sensor(9), 
  3266 ;; Auto vars:     Size  Location     Type
  3267 ;;  sensor          1    0[COMMON] PTR struct .
  3268 ;;		 -> mtouch_sensor(9), 
  3269 ;; Return value:  Size  Location     Type
  3270 ;;                  1    wreg      void 
  3271 ;; Registers used:
  3272 ;;		wreg, fsr1l, fsr1h, status,2, status,0
  3273 ;; Tracked objects:
  3274 ;;		On entry : 1F/0
  3275 ;;		On exit  : 1F/0
  3276 ;;		Unchanged: 1F/0
  3277 ;; Data sizes:     COMMON   BANK0   BANK1   BANK2
  3278 ;;      Params:         0       0       0       0
  3279 ;;      Locals:         1       0       0       0
  3280 ;;      Temps:          0       0       0       0
  3281 ;;      Totals:         1       0       0       0
  3282 ;;Total ram usage:        1 bytes
  3283 ;; Hardware stack levels used:    1
  3284 ;; This function calls:
  3285 ;;		Nothing
  3286 ;; This function is called by:
  3287 ;;		_Sensor_Acquisition
  3288 ;; This function uses a non-reentrant model
  3289 ;;
  3290                           
  3291                           
  3292                           ;psect for function _Sensor_setInactive
  3293  007B                     _Sensor_setInactive:	
  3294                           
  3295                           ;incstack = 0
  3296                           ; Regs used in _Sensor_setInactive: [wreg+fsr1l+fsr1h+status,2+status,0]
  3297                           ;Sensor_setInactive@sensor stored from wreg
  3298  007B  00F0               	movwf	Sensor_setInactive@sensor
  3299                           
  3300                           ;mcc_generated_files/mtouch/mtouch_sensor.c: 512: static __attribute__((inline)) void Se
      +                          nsor_setInactive(mtouch_sensor_t* sensor);mcc_generated_files/mtouch/mtouch_sensor.c: 51
      +                          3: {;mcc_generated_files/mtouch/mtouch_sensor.c: 514:     sensor->active = 0;
  3301  007C  0870               	movf	Sensor_setInactive@sensor,w
  3302  007D  3E08               	addlw	8
  3303  007E  0086               	movwf	6
  3304  007F  0187               	clrf	7
  3305  0080  1101               	bcf	1,2
  3306  0081  0008               	return
  3307  0082                     __end_of_Sensor_setInactive:	
  3308                           
  3309                           	psect	text26
  3310  0074                     __ptext26:	
  3311 ;; *************** function _Sensor_setActive *****************
  3312 ;; Defined at:
  3313 ;;		line 507 in file "mcc_generated_files/mtouch/mtouch_sensor.c"
  3314 ;; Parameters:    Size  Location     Type
  3315 ;;  sensor          1    wreg     PTR struct .
  3316 ;;		 -> mtouch_sensor(9), 
  3317 ;; Auto vars:     Size  Location     Type
  3318 ;;  sensor          1    0[COMMON] PTR struct .
  3319 ;;		 -> mtouch_sensor(9), 
  3320 ;; Return value:  Size  Location     Type
  3321 ;;                  1    wreg      void 
  3322 ;; Registers used:
  3323 ;;		wreg, fsr1l, fsr1h, status,2, status,0
  3324 ;; Tracked objects:
  3325 ;;		On entry : 1F/0
  3326 ;;		On exit  : 1F/0
  3327 ;;		Unchanged: 1F/0
  3328 ;; Data sizes:     COMMON   BANK0   BANK1   BANK2
  3329 ;;      Params:         0       0       0       0
  3330 ;;      Locals:         1       0       0       0
  3331 ;;      Temps:          0       0       0       0
  3332 ;;      Totals:         1       0       0       0
  3333 ;;Total ram usage:        1 bytes
  3334 ;; Hardware stack levels used:    1
  3335 ;; This function calls:
  3336 ;;		Nothing
  3337 ;; This function is called by:
  3338 ;;		_Sensor_Acquisition
  3339 ;; This function uses a non-reentrant model
  3340 ;;
  3341                           
  3342                           
  3343                           ;psect for function _Sensor_setActive
  3344  0074                     _Sensor_setActive:	
  3345                           
  3346                           ;incstack = 0
  3347                           ; Regs used in _Sensor_setActive: [wreg+fsr1l+fsr1h+status,2+status,0]
  3348                           ;Sensor_setActive@sensor stored from wreg
  3349  0074  00F0               	movwf	Sensor_setActive@sensor
  3350                           
  3351                           ;mcc_generated_files/mtouch/mtouch_sensor.c: 507: static __attribute__((inline)) void Se
      +                          nsor_setActive(mtouch_sensor_t* sensor);mcc_generated_files/mtouch/mtouch_sensor.c: 508:
      +                           {;mcc_generated_files/mtouch/mtouch_sensor.c: 509:     sensor->active = 1;
  3352  0075  0870               	movf	Sensor_setActive@sensor,w
  3353  0076  3E08               	addlw	8
  3354  0077  0086               	movwf	6
  3355  0078  0187               	clrf	7
  3356  0079  1501               	bsf	1,2
  3357  007A  0008               	return
  3358  007B                     __end_of_Sensor_setActive:	
  3359                           
  3360                           	psect	text27
  3361  00C3                     __ptext27:	
  3362 ;; *************** function _Sensor_isEnabled *****************
  3363 ;; Defined at:
  3364 ;;		line 492 in file "mcc_generated_files/mtouch/mtouch_sensor.c"
  3365 ;; Parameters:    Size  Location     Type
  3366 ;;  sensor          1    wreg     PTR struct .
  3367 ;;		 -> mtouch_sensor(9), 
  3368 ;; Auto vars:     Size  Location     Type
  3369 ;;  sensor          1    0[COMMON] PTR struct .
  3370 ;;		 -> mtouch_sensor(9), 
  3371 ;; Return value:  Size  Location     Type
  3372 ;;                  1    wreg      _Bool 
  3373 ;; Registers used:
  3374 ;;		wreg, fsr1l, fsr1h, status,2, status,0
  3375 ;; Tracked objects:
  3376 ;;		On entry : 1F/0
  3377 ;;		On exit  : 1F/0
  3378 ;;		Unchanged: 1F/0
  3379 ;; Data sizes:     COMMON   BANK0   BANK1   BANK2
  3380 ;;      Params:         0       0       0       0
  3381 ;;      Locals:         1       0       0       0
  3382 ;;      Temps:          0       0       0       0
  3383 ;;      Totals:         1       0       0       0
  3384 ;;Total ram usage:        1 bytes
  3385 ;; Hardware stack levels used:    1
  3386 ;; This function calls:
  3387 ;;		Nothing
  3388 ;; This function is called by:
  3389 ;;		_Sensor_Service
  3390 ;;		_Sensor_Acquisition
  3391 ;; This function uses a non-reentrant model
  3392 ;;
  3393                           
  3394                           
  3395                           ;psect for function _Sensor_isEnabled
  3396  00C3                     _Sensor_isEnabled:	
  3397                           
  3398                           ;incstack = 0
  3399                           ; Regs used in _Sensor_isEnabled: [wreg+fsr1l+fsr1h+status,2+status,0]
  3400                           ;Sensor_isEnabled@sensor stored from wreg
  3401  00C3  00F0               	movwf	Sensor_isEnabled@sensor
  3402                           
  3403                           ;mcc_generated_files/mtouch/mtouch_sensor.c: 492: static _Bool Sensor_isEnabled(mtouch_s
      +                          ensor_t* sensor);mcc_generated_files/mtouch/mtouch_sensor.c: 493: {;mcc_generated_files/
      +                          mtouch/mtouch_sensor.c: 494:     if(sensor!=((void*)0))
  3404  00C4  0870               	movf	Sensor_isEnabled@sensor,w
  3405  00C5  1903               	btfsc	3,2
  3406  00C6  28CE               	goto	l1893
  3407                           
  3408                           ;mcc_generated_files/mtouch/mtouch_sensor.c: 495:         return (_Bool)sensor->enabled;
  3409  00C7  0870               	movf	Sensor_isEnabled@sensor,w
  3410  00C8  3E08               	addlw	8
  3411  00C9  0086               	movwf	6
  3412  00CA  0187               	clrf	7
  3413  00CB  0801               	movf	1,w
  3414  00CC  3901               	andlw	1
  3415  00CD  0008               	return
  3416  00CE                     l1893:	
  3417                           
  3418                           ;mcc_generated_files/mtouch/mtouch_sensor.c: 497:         return 0;
  3419  00CE  3000               	movlw	0
  3420  00CF  0008               	return
  3421  00D0                     __end_of_Sensor_isEnabled:	
  3422                           
  3423                           	psect	text28
  3424  0438                     __ptext28:	
  3425 ;; *************** function _Sensor_Acq_ExecutePacket *****************
  3426 ;; Defined at:
  3427 ;;		line 312 in file "mcc_generated_files/mtouch/mtouch_sensor.c"
  3428 ;; Parameters:    Size  Location     Type
  3429 ;;  sensor          1    wreg     PTR struct .
  3430 ;;		 -> mtouch_sensor(9), 
  3431 ;; Auto vars:     Size  Location     Type
  3432 ;;  sensor          1   13[COMMON] PTR struct .
  3433 ;;		 -> mtouch_sensor(9), 
  3434 ;;  error           1   12[COMMON] enum E1338
  3435 ;;  GIE_state       1   11[COMMON] unsigned char 
  3436 ;;  ADCON1_temp     1   10[COMMON] unsigned char 
  3437 ;;  ADCON0_temp     1    9[COMMON] unsigned char 
  3438 ;; Return value:  Size  Location     Type
  3439 ;;                  1    wreg      enum E1338
  3440 ;; Registers used:
  3441 ;;		wreg, fsr0l, fsr0h, fsr1l, fsr1h, status,2, status,0, pclath, cstack
  3442 ;; Tracked objects:
  3443 ;;		On entry : 1F/0
  3444 ;;		On exit  : 1F/0
  3445 ;;		Unchanged: 0/0
  3446 ;; Data sizes:     COMMON   BANK0   BANK1   BANK2
  3447 ;;      Params:         0       0       0       0
  3448 ;;      Locals:         5       0       0       0
  3449 ;;      Temps:          1       0       0       0
  3450 ;;      Totals:         6       0       0       0
  3451 ;;Total ram usage:        6 bytes
  3452 ;; Hardware stack levels used:    1
  3453 ;; Hardware stack levels required when called:    2
  3454 ;; This function calls:
  3455 ;;		_MTOUCH_Delay
  3456 ;;		_MTOUCH_Random
  3457 ;;		_MTOUCH_Sensor_Scan_Initialize
  3458 ;;		_Sensor_Acq_ExecuteScan
  3459 ;;		_Sensor_setScanFunction
  3460 ;; This function is called by:
  3461 ;;		_Sensor_Acquisition
  3462 ;; This function uses a non-reentrant model
  3463 ;;
  3464                           
  3465                           
  3466                           ;psect for function _Sensor_Acq_ExecutePacket
  3467  0438                     _Sensor_Acq_ExecutePacket:	
  3468                           
  3469                           ;incstack = 0
  3470                           ; Regs used in _Sensor_Acq_ExecutePacket: [wreg-fsr1h+status,2+status,0+pclath+cstack]
  3471                           ;Sensor_Acq_ExecutePacket@sensor stored from wreg
  3472  0438  00FD               	movwf	Sensor_Acq_ExecutePacket@sensor
  3473                           
  3474                           ;mcc_generated_files/mtouch/mtouch_sensor.c: 312: static enum mtouch_sensor_error Sensor
      +                          _Acq_ExecutePacket(mtouch_sensor_t* sensor);mcc_generated_files/mtouch/mtouch_sensor.c: 
      +                          313: {;mcc_generated_files/mtouch/mtouch_sensor.c: 315:     enum mtouch_sensor_error err
      +                          or = MTOUCH_SENSOR_ERROR_none;
  3475  0439  01FC               	clrf	Sensor_Acq_ExecutePacket@error
  3476                           
  3477                           ;mcc_generated_files/mtouch/mtouch_sensor.c: 316:     uint8_t ADCON0_temp;;mcc_generated
      +                          _files/mtouch/mtouch_sensor.c: 317:     uint8_t ADCON1_temp;;mcc_generated_files/mtouch/
      +                          mtouch_sensor.c: 319:     uint8_t GIE_state;;mcc_generated_files/mtouch/mtouch_sensor.c:
      +                           321:     ADCON0_temp = ADCON0;
  3478  043A  0021               	movlb	1	; select bank1
  3479  043B  081D               	movf	29,w	;volatile
  3480  043C  00F8               	movwf	??_Sensor_Acq_ExecutePacket
  3481  043D  0878               	movf	??_Sensor_Acq_ExecutePacket,w
  3482  043E  00F9               	movwf	Sensor_Acq_ExecutePacket@ADCON0_temp
  3483                           
  3484                           ;mcc_generated_files/mtouch/mtouch_sensor.c: 322:     ADCON1_temp = ADCON1;
  3485  043F  081E               	movf	30,w	;volatile
  3486  0440  00F8               	movwf	??_Sensor_Acq_ExecutePacket
  3487  0441  0878               	movf	??_Sensor_Acq_ExecutePacket,w
  3488  0442  00FA               	movwf	Sensor_Acq_ExecutePacket@ADCON1_temp
  3489                           
  3490                           ;mcc_generated_files/mtouch/mtouch_sensor.c: 323:     MTOUCH_Sensor_Scan_Initialize();
  3491  0443  2053               	fcall	_MTOUCH_Sensor_Scan_Initialize
  3492                           
  3493                           ;mcc_generated_files/mtouch/mtouch_sensor.c: 325:     GIE_state = INTCONbits.GIE;
  3494  0444  3000               	movlw	0
  3495  0445  1B8B               	btfsc	11,7	;volatile
  3496  0446  3001               	movlw	1
  3497  0447  00FB               	movwf	Sensor_Acq_ExecutePacket@GIE_state
  3498                           
  3499                           ;mcc_generated_files/mtouch/mtouch_sensor.c: 327:     Sensor_setScanFunction(sensor);
  3500  0448  087D               	movf	Sensor_Acq_ExecutePacket@sensor,w
  3501  0449  2192               	fcall	_Sensor_setScanFunction
  3502                           
  3503                           ;mcc_generated_files/mtouch/mtouch_sensor.c: 329:     currentScannSensor = sensor->senso
      +                          r_name;
  3504  044A  087D               	movf	Sensor_Acq_ExecutePacket@sensor,w
  3505  044B  0086               	movwf	6
  3506  044C  0187               	clrf	7
  3507  044D  0801               	movf	1,w
  3508  044E  00F8               	movwf	??_Sensor_Acq_ExecutePacket
  3509  044F  0878               	movf	??_Sensor_Acq_ExecutePacket,w
  3510  0450  00A7               	movwf	_currentScannSensor
  3511                           
  3512                           ;mcc_generated_files/mtouch/mtouch_sensor.c: 330:     packet_counter = sensor->oversampl
      +                          ing;
  3513  0451  087D               	movf	Sensor_Acq_ExecutePacket@sensor,w
  3514  0452  0086               	movwf	6
  3515  0453  0187               	clrf	7
  3516  0454  3F45               	moviw [5]fsr1
  3517  0455  00A6               	movwf	_packet_counter
  3518                           
  3519                           ;mcc_generated_files/mtouch/mtouch_sensor.c: 331:     packet_sample = 0;
  3520  0456  01A0               	clrf	_packet_sample
  3521  0457  01A1               	clrf	_packet_sample+1
  3522                           
  3523                           ;mcc_generated_files/mtouch/mtouch_sensor.c: 332:     sensor_globalFlags.packet_done = 0
      +                          ;
  3524  0458  1028               	bcf	_sensor_globalFlags,0	;volatile
  3525                           
  3526                           ;mcc_generated_files/mtouch/mtouch_sensor.c: 333:     sample_delay = MTOUCH_Random();
  3527  0459  20F9               	fcall	_MTOUCH_Random
  3528  045A  00F8               	movwf	??_Sensor_Acq_ExecutePacket
  3529  045B  0878               	movf	??_Sensor_Acq_ExecutePacket,w
  3530  045C  00A5               	movwf	_sample_delay
  3531                           
  3532                           ;mcc_generated_files/mtouch/mtouch_sensor.c: 334:     packet_sample = 0;
  3533  045D  01A0               	clrf	_packet_sample
  3534  045E  01A1               	clrf	_packet_sample+1
  3535                           
  3536                           ;mcc_generated_files/mtouch/mtouch_sensor.c: 336:     sensor_globalFlags.interrupted = 0
      +                          ;
  3537  045F  10A8               	bcf	_sensor_globalFlags,1	;volatile
  3538  0460                     l1919:	
  3539                           
  3540                           ;mcc_generated_files/mtouch/mtouch_sensor.c: 340:     {;mcc_generated_files/mtouch/mtouc
      +                          h_sensor.c: 341:         INTCONbits.GIE = (uint8_t)0;
  3541  0460  138B               	bcf	11,7	;volatile
  3542                           
  3543                           ;mcc_generated_files/mtouch/mtouch_sensor.c: 342:         Sensor_Acq_ExecuteScan();
  3544  0461  247C               	fcall	_Sensor_Acq_ExecuteScan
  3545                           
  3546                           ;mcc_generated_files/mtouch/mtouch_sensor.c: 343:         INTCONbits.GIE = GIE_state;
  3547  0462  0C7B               	rrf	Sensor_Acq_ExecutePacket@GIE_state,w
  3548  0463  1C03               	skipc
  3549  0464  138B               	bcf	11,7	;volatile
  3550  0465  1803               	skipnc
  3551  0466  178B               	bsf	11,7	;volatile
  3552                           
  3553                           ;mcc_generated_files/mtouch/mtouch_sensor.c: 344:         MTOUCH_Delay();
  3554  0467  2097               	fcall	_MTOUCH_Delay
  3555  0468                     l125:	
  3556                           ;mcc_generated_files/mtouch/mtouch_sensor.c: 345:         while(ADCON0bits.GO_nDONE == 1
      +                          );
  3557                           
  3558  0468  0021               	movlb	1	; select bank1
  3559  0469  189D               	btfsc	29,1	;volatile
  3560  046A  2C68               	goto	l125
  3561                           
  3562                           ;mcc_generated_files/mtouch/mtouch_sensor.c: 346:     } while(sensor_globalFlags.packet_
      +                          done == 0);
  3563  046B  0020               	movlb	0	; select bank0
  3564  046C  1C28               	btfss	_sensor_globalFlags,0	;volatile
  3565  046D  2C60               	goto	l1919
  3566                           
  3567                           ;mcc_generated_files/mtouch/mtouch_sensor.c: 349:     ADCON0 = ADCON0_temp;
  3568  046E  0879               	movf	Sensor_Acq_ExecutePacket@ADCON0_temp,w
  3569  046F  0021               	movlb	1	; select bank1
  3570  0470  009D               	movwf	29	;volatile
  3571                           
  3572                           ;mcc_generated_files/mtouch/mtouch_sensor.c: 350:     ADCON1 = ADCON1_temp;
  3573  0471  087A               	movf	Sensor_Acq_ExecutePacket@ADCON1_temp,w
  3574  0472  009E               	movwf	30	;volatile
  3575                           
  3576                           ;mcc_generated_files/mtouch/mtouch_sensor.c: 352:     if(sensor_globalFlags.interrupted)
  3577  0473  0020               	movlb	0	; select bank0
  3578  0474  1CA8               	btfss	_sensor_globalFlags,1	;volatile
  3579  0475  2C7A               	goto	l129
  3580                           
  3581                           ;mcc_generated_files/mtouch/mtouch_sensor.c: 353:     {;mcc_generated_files/mtouch/mtouc
      +                          h_sensor.c: 354:         error = MTOUCH_SENSOR_ERROR_interruptedScan;
  3582  0476  30FA               	movlw	250
  3583  0477  00F8               	movwf	??_Sensor_Acq_ExecutePacket
  3584  0478  0878               	movf	??_Sensor_Acq_ExecutePacket,w
  3585  0479  00FC               	movwf	Sensor_Acq_ExecutePacket@error
  3586  047A                     l129:	
  3587                           ;mcc_generated_files/mtouch/mtouch_sensor.c: 355:     }
  3588                           
  3589                           
  3590                           ;mcc_generated_files/mtouch/mtouch_sensor.c: 357:     return error;
  3591  047A  087C               	movf	Sensor_Acq_ExecutePacket@error,w
  3592  047B  0008               	return
  3593  047C                     __end_of_Sensor_Acq_ExecutePacket:	
  3594                           
  3595                           	psect	text29
  3596  0192                     __ptext29:	
  3597 ;; *************** function _Sensor_setScanFunction *****************
  3598 ;; Defined at:
  3599 ;;		line 459 in file "mcc_generated_files/mtouch/mtouch_sensor.c"
  3600 ;; Parameters:    Size  Location     Type
  3601 ;;  sensor          1    wreg     PTR struct .
  3602 ;;		 -> mtouch_sensor(9), 
  3603 ;; Auto vars:     Size  Location     Type
  3604 ;;  sensor          1    0[COMMON] PTR struct .
  3605 ;;		 -> mtouch_sensor(9), 
  3606 ;; Return value:  Size  Location     Type
  3607 ;;                  1    wreg      void 
  3608 ;; Registers used:
  3609 ;;		wreg, fsr1l, fsr1h, status,2, status,0
  3610 ;; Tracked objects:
  3611 ;;		On entry : 1F/1
  3612 ;;		On exit  : 1F/0
  3613 ;;		Unchanged: 0/0
  3614 ;; Data sizes:     COMMON   BANK0   BANK1   BANK2
  3615 ;;      Params:         0       0       0       0
  3616 ;;      Locals:         1       0       0       0
  3617 ;;      Temps:          0       0       0       0
  3618 ;;      Totals:         1       0       0       0
  3619 ;;Total ram usage:        1 bytes
  3620 ;; Hardware stack levels used:    1
  3621 ;; This function calls:
  3622 ;;		Nothing
  3623 ;; This function is called by:
  3624 ;;		_Sensor_Acq_ExecutePacket
  3625 ;; This function uses a non-reentrant model
  3626 ;;
  3627                           
  3628                           
  3629                           ;psect for function _Sensor_setScanFunction
  3630  0192                     _Sensor_setScanFunction:	
  3631                           
  3632                           ;incstack = 0
  3633                           ; Regs used in _Sensor_setScanFunction: [wreg+fsr1l+fsr1h+status,2+status,0]
  3634                           ;Sensor_setScanFunction@sensor stored from wreg
  3635  0192  00F0               	movwf	Sensor_setScanFunction@sensor
  3636  0193  0A70               	incf	Sensor_setScanFunction@sensor,w
  3637  0194  0086               	movwf	6
  3638  0195  0187               	clrf	7
  3639  0196  3F40               	moviw [0]fsr1
  3640  0197  0020               	movlb	0	; select bank0
  3641  0198  00C7               	movwf	_Sensor_scanA
  3642  0199  3F41               	moviw [1]fsr1
  3643  019A  00C8               	movwf	_Sensor_scanA+1
  3644  019B  0870               	movf	Sensor_setScanFunction@sensor,w
  3645  019C  3E03               	addlw	3
  3646  019D  0086               	movwf	6
  3647  019E  0187               	clrf	7
  3648  019F  3F40               	moviw [0]fsr1
  3649  01A0  00C5               	movwf	_Sensor_scanB
  3650  01A1  3F41               	moviw [1]fsr1
  3651  01A2  00C6               	movwf	_Sensor_scanB+1
  3652  01A3  0008               	return
  3653  01A4                     __end_of_Sensor_setScanFunction:	
  3654                           
  3655                           	psect	text30
  3656  047C                     __ptext30:	
  3657 ;; *************** function _Sensor_Acq_ExecuteScan *****************
  3658 ;; Defined at:
  3659 ;;		line 376 in file "mcc_generated_files/mtouch/mtouch_sensor.c"
  3660 ;; Parameters:    Size  Location     Type
  3661 ;;		None
  3662 ;; Auto vars:     Size  Location     Type
  3663 ;;  result          2    6[COMMON] unsigned short 
  3664 ;; Return value:  Size  Location     Type
  3665 ;;                  1    wreg      void 
  3666 ;; Registers used:
  3667 ;;		wreg, fsr0l, fsr0h, fsr1l, fsr1h, status,2, status,0, pclath, cstack
  3668 ;; Tracked objects:
  3669 ;;		On entry : 1F/0
  3670 ;;		On exit  : 1F/0
  3671 ;;		Unchanged: 0/0
  3672 ;; Data sizes:     COMMON   BANK0   BANK1   BANK2
  3673 ;;      Params:         0       0       0       0
  3674 ;;      Locals:         2       0       0       0
  3675 ;;      Temps:          2       0       0       0
  3676 ;;      Totals:         4       0       0       0
  3677 ;;Total ram usage:        4 bytes
  3678 ;; Hardware stack levels used:    1
  3679 ;; Hardware stack levels required when called:    1
  3680 ;; This function calls:
  3681 ;;		_MTOUCH_CVD_ScanA_0
  3682 ;;		_MTOUCH_CVD_ScanB_0
  3683 ;;		___bmul
  3684 ;; This function is called by:
  3685 ;;		_Sensor_Acq_ExecutePacket
  3686 ;; This function uses a non-reentrant model
  3687 ;;
  3688                           
  3689                           
  3690                           ;psect for function _Sensor_Acq_ExecuteScan
  3691  047C                     _Sensor_Acq_ExecuteScan:	
  3692                           
  3693                           ;mcc_generated_files/mtouch/mtouch_sensor.c: 379:     mtouch_sensor_adcsample_t result =
      +                           ADRES;
  3694                           
  3695                           ;incstack = 0
  3696                           ; Regs used in _Sensor_Acq_ExecuteScan: [wreg-fsr1h+status,2+status,0+pclath+cstack]
  3697  047C  0021               	movlb	1	; select bank1
  3698  047D  081C               	movf	28,w	;volatile
  3699  047E  00F7               	movwf	Sensor_Acq_ExecuteScan@result+1
  3700  047F  081B               	movf	27,w	;volatile
  3701  0480  00F6               	movwf	Sensor_Acq_ExecuteScan@result
  3702                           
  3703                           ;mcc_generated_files/mtouch/mtouch_sensor.c: 381:     if(sensor_globalFlags.packet_done)
  3704  0481  0020               	movlb	0	; select bank0
  3705  0482  1828               	btfsc	_sensor_globalFlags,0	;volatile
  3706  0483  0008               	return
  3707                           
  3708                           ;mcc_generated_files/mtouch/mtouch_sensor.c: 384:     if (packet_counter != (uint8_t)0)
  3709  0484  0826               	movf	_packet_counter,w
  3710  0485  1D03               	btfss	3,2
  3711  0486  2C8C               	goto	l1833
  3712  0487  2CBF               	goto	l1845
  3713  0488                     l1827:	
  3714  0488  228A               	fcall	_MTOUCH_CVD_ScanA_0
  3715  0489  2C9D               	goto	l1835
  3716  048A                     l1829:	
  3717  048A  22AF               	fcall	_MTOUCH_CVD_ScanB_0
  3718  048B  2C9D               	goto	l1835
  3719  048C                     l1833:	
  3720  048C  0826               	movf	_packet_counter,w
  3721  048D  3901               	andlw	1
  3722  048E  00F4               	movwf	??_Sensor_Acq_ExecuteScan
  3723  048F  01F5               	clrf	??_Sensor_Acq_ExecuteScan+1
  3724                           
  3725                           ; Switch on 2 bytes has been partitioned into a top level switch of size 1, and 1 sub-sw
      +                          itches
  3726                           ; Switch size 1, requested type "simple"
  3727                           ; Number of cases is 1, Range of values is 0 to 0
  3728                           ; switch strategies available:
  3729                           ; Name         Instructions Cycles
  3730                           ; simple_byte            4     3 (average)
  3731                           ; direct_byte            8     6 (fixed)
  3732                           ; jumptable            260     6 (fixed)
  3733                           ;	Chosen strategy is simple_byte
  3734  0490  0875               	movf	??_Sensor_Acq_ExecuteScan+1,w
  3735  0491  3A00               	xorlw	0	; case 0
  3736  0492  1903               	skipnz
  3737  0493  2C95               	goto	l2421
  3738  0494  2C9D               	goto	l1835
  3739  0495                     l2421:	
  3740                           
  3741                           ; Switch size 1, requested type "simple"
  3742                           ; Number of cases is 2, Range of values is 0 to 1
  3743                           ; switch strategies available:
  3744                           ; Name         Instructions Cycles
  3745                           ; simple_byte            7     4 (average)
  3746                           ; direct_byte           10     6 (fixed)
  3747                           ; jumptable            260     6 (fixed)
  3748                           ;	Chosen strategy is simple_byte
  3749  0495  0874               	movf	??_Sensor_Acq_ExecuteScan,w
  3750  0496  3A00               	xorlw	0	; case 0
  3751  0497  1903               	skipnz
  3752  0498  2C88               	goto	l1827
  3753  0499  3A01               	xorlw	1	; case 1
  3754  049A  1903               	skipnz
  3755  049B  2C8A               	goto	l1829
  3756  049C  2C9D               	goto	l1835
  3757  049D                     l1835:	
  3758  049D  3009               	movlw	9
  3759  049E  00F4               	movwf	??_Sensor_Acq_ExecuteScan
  3760  049F  0874               	movf	??_Sensor_Acq_ExecuteScan,w
  3761  04A0  00F0               	movwf	___bmul@multiplicand
  3762  04A1  0020               	movlb	0	; select bank0
  3763  04A2  0827               	movf	_currentScannSensor,w
  3764  04A3  2129               	fcall	___bmul
  3765  04A4  3E50               	addlw	(low ((_mtouch_sensor| 0+5)))& (0+255)
  3766  04A5  0086               	movwf	6
  3767  04A6  0187               	clrf	7
  3768  04A7  0801               	movf	1,w
  3769  04A8  0020               	movlb	0	; select bank0
  3770  04A9  0626               	xorwf	_packet_counter,w
  3771  04AA  1903               	skipnz
  3772  04AB  2CBC               	goto	l1843
  3773  04AC  1C26               	btfss	_packet_counter,0
  3774  04AD  2CB8               	goto	l1841
  3775  04AE  3000               	movlw	0
  3776  04AF  00F4               	movwf	??_Sensor_Acq_ExecuteScan
  3777  04B0  3004               	movlw	4
  3778  04B1  00F5               	movwf	??_Sensor_Acq_ExecuteScan+1
  3779  04B2  0876               	movf	Sensor_Acq_ExecuteScan@result,w
  3780  04B3  0274               	subwf	??_Sensor_Acq_ExecuteScan,w
  3781  04B4  00F6               	movwf	Sensor_Acq_ExecuteScan@result
  3782  04B5  0877               	movf	Sensor_Acq_ExecuteScan@result+1,w
  3783  04B6  3B75               	subwfb	??_Sensor_Acq_ExecuteScan+1,w
  3784  04B7  00F7               	movwf	Sensor_Acq_ExecuteScan@result+1
  3785  04B8                     l1841:	
  3786  04B8  0876               	movf	Sensor_Acq_ExecuteScan@result,w
  3787  04B9  07A0               	addwf	_packet_sample,f
  3788  04BA  0877               	movf	Sensor_Acq_ExecuteScan@result+1,w
  3789  04BB  3DA1               	addwfc	_packet_sample+1,f
  3790  04BC                     l1843:	
  3791  04BC  3001               	movlw	1
  3792  04BD  02A6               	subwf	_packet_counter,f
  3793  04BE  0008               	return
  3794  04BF                     l1845:	
  3795  04BF  0876               	movf	Sensor_Acq_ExecuteScan@result,w
  3796  04C0  07A0               	addwf	_packet_sample,f
  3797  04C1  0877               	movf	Sensor_Acq_ExecuteScan@result+1,w
  3798  04C2  3DA1               	addwfc	_packet_sample+1,f
  3799  04C3  1428               	bsf	_sensor_globalFlags,0	;volatile
  3800  04C4  0008               	return
  3801  04C5                     __end_of_Sensor_Acq_ExecuteScan:	
  3802                           
  3803                           	psect	text31
  3804  02AF                     __ptext31:	
  3805 ;; *************** function _MTOUCH_CVD_ScanB_0 *****************
  3806 ;; Defined at:
  3807 ;;		line 119 in file "mcc_generated_files/mtouch/mtouch_sensor_scan.c"
  3808 ;; Parameters:    Size  Location     Type
  3809 ;;		None
  3810 ;; Auto vars:     Size  Location     Type
  3811 ;;		None
  3812 ;; Return value:  Size  Location     Type
  3813 ;;                  1    wreg      void 
  3814 ;; Registers used:
  3815 ;;		wreg
  3816 ;; Tracked objects:
  3817 ;;		On entry : 1F/0
  3818 ;;		On exit  : 0/0
  3819 ;;		Unchanged: 0/0
  3820 ;; Data sizes:     COMMON   BANK0   BANK1   BANK2
  3821 ;;      Params:         0       0       0       0
  3822 ;;      Locals:         0       0       0       0
  3823 ;;      Temps:          0       0       0       0
  3824 ;;      Totals:         0       0       0       0
  3825 ;;Total ram usage:        0 bytes
  3826 ;; Hardware stack levels used:    1
  3827 ;; This function calls:
  3828 ;;		Nothing
  3829 ;; This function is called by:
  3830 ;;		_Sensor_Acq_ExecuteScan
  3831 ;; This function uses a non-reentrant model
  3832 ;;
  3833                           
  3834                           
  3835                           ;psect for function _MTOUCH_CVD_ScanB_0
  3836  02AF                     _MTOUCH_CVD_ScanB_0:	
  3837                           
  3838                           ;incstack = 0
  3839                           ; Regs used in _MTOUCH_CVD_ScanB_0: [wreg]
  3840  02AF  0022               	banksel	268	;# 
  3841  02B0  128C               	bcf	12,5	;# 
  3842  02B1  0021               	banksel	157	;# 
  3843  02B2  3011               	movlw	17	;# 
  3844  02B3  009D               	movwf	29	;# 
  3845                           
  3846                           ;mcc_generated_files/mtouch/mtouch_sensor_scan.c: 131:     _delay(16u);
  3847  02B4  3005               	movlw	5
  3848  02B5                     u1297:	
  3849  02B5  0B89               	decfsz	9,f
  3850  02B6  2AB5               	goto	u1297
  3851  02B7  0000               	nop
  3852  02B8  3071               	movlw	113	;# 
  3853  02B9  009D               	movwf	29	;# 
  3854  02BA  0022               	banksel	268	;# 
  3855  02BB  168C               	bsf	12,5	;# 
  3856  02BC  0021               	banksel	157	;# 
  3857  02BD  308C               	movlw	140	;# 
  3858  02BE  0084               	movwf	4	;# 
  3859  02BF  3000               	movlw	0	;# 
  3860  02C0  0085               	movwf	5	;# 
  3861  02C1  300C               	movlw	12	;# 
  3862  02C2  0086               	movwf	6	;# 
  3863  02C3  3001               	movlw	1	;# 
  3864  02C4  0087               	movwf	7	;# 
  3865  02C5  3011               	movlw	17	;# 
  3866  02C6  1680               	bsf	0,5	;# 
  3867                           
  3868                           ;mcc_generated_files/mtouch/mtouch_sensor_scan.c: 155:     _delay(0u);
  3869  02C7  009D               	movwf	29	;# 
  3870                           
  3871                           ;mcc_generated_files/mtouch/mtouch_sensor_scan.c: 162:     _delay(8u);
  3872  02C8  3200               	nop2	;2 cycle nop
  3873  02C9  3200               	nop2	;2 cycle nop
  3874  02CA  3200               	nop2	;2 cycle nop
  3875  02CB  3200               	nop2	;2 cycle nop
  3876  02CC  0021               	banksel	157	;# 
  3877  02CD  149D               	bsf	29,1	;# 
  3878                           
  3879                           ;mcc_generated_files/mtouch/mtouch_sensor_scan.c: 169:     _delay(3u);
  3880  02CE  3200               	nop2	;2 cycle nop
  3881  02CF  0000               	nop
  3882  02D0  0022               	banksel	268	;# 
  3883  02D1  128C               	bcf	12,5	;# 
  3884  02D2  1280               	bcf	0,5	;# 
  3885  02D3  0008               	return
  3886  02D4                     __end_of_MTOUCH_CVD_ScanB_0:	
  3887                           
  3888                           	psect	text32
  3889  028A                     __ptext32:	
  3890 ;; *************** function _MTOUCH_CVD_ScanA_0 *****************
  3891 ;; Defined at:
  3892 ;;		line 50 in file "mcc_generated_files/mtouch/mtouch_sensor_scan.c"
  3893 ;; Parameters:    Size  Location     Type
  3894 ;;		None
  3895 ;; Auto vars:     Size  Location     Type
  3896 ;;		None
  3897 ;; Return value:  Size  Location     Type
  3898 ;;                  1    wreg      void 
  3899 ;; Registers used:
  3900 ;;		wreg
  3901 ;; Tracked objects:
  3902 ;;		On entry : 1F/0
  3903 ;;		On exit  : 0/0
  3904 ;;		Unchanged: 0/0
  3905 ;; Data sizes:     COMMON   BANK0   BANK1   BANK2
  3906 ;;      Params:         0       0       0       0
  3907 ;;      Locals:         0       0       0       0
  3908 ;;      Temps:          0       0       0       0
  3909 ;;      Totals:         0       0       0       0
  3910 ;;Total ram usage:        0 bytes
  3911 ;; Hardware stack levels used:    1
  3912 ;; This function calls:
  3913 ;;		Nothing
  3914 ;; This function is called by:
  3915 ;;		_Sensor_Acq_ExecuteScan
  3916 ;; This function uses a non-reentrant model
  3917 ;;
  3918                           
  3919                           
  3920                           ;psect for function _MTOUCH_CVD_ScanA_0
  3921  028A                     _MTOUCH_CVD_ScanA_0:	
  3922                           
  3923                           ;incstack = 0
  3924                           ; Regs used in _MTOUCH_CVD_ScanA_0: [wreg]
  3925  028A  0022               	banksel	268	;# 
  3926  028B  168C               	bsf	12,5	;# 
  3927  028C  0021               	banksel	157	;# 
  3928  028D  3011               	movlw	17	;# 
  3929  028E  009D               	movwf	29	;# 
  3930                           
  3931                           ;mcc_generated_files/mtouch/mtouch_sensor_scan.c: 62:     _delay(16u);
  3932  028F  3005               	movlw	5
  3933  0290                     u1307:	
  3934  0290  0B89               	decfsz	9,f
  3935  0291  2A90               	goto	u1307
  3936  0292  0000               	nop
  3937  0293  3071               	movlw	113	;# 
  3938  0294  009D               	movwf	29	;# 
  3939  0295  0022               	banksel	268	;# 
  3940  0296  128C               	bcf	12,5	;# 
  3941  0297  0021               	banksel	157	;# 
  3942  0298  308C               	movlw	140	;# 
  3943  0299  0084               	movwf	4	;# 
  3944  029A  3000               	movlw	0	;# 
  3945  029B  0085               	movwf	5	;# 
  3946  029C  300C               	movlw	12	;# 
  3947  029D  0086               	movwf	6	;# 
  3948  029E  3001               	movlw	1	;# 
  3949  029F  0087               	movwf	7	;# 
  3950  02A0  3011               	movlw	17	;# 
  3951  02A1  1680               	bsf	0,5	;# 
  3952                           
  3953                           ;mcc_generated_files/mtouch/mtouch_sensor_scan.c: 86:     _delay(0u);
  3954  02A2  009D               	movwf	29	;# 
  3955                           
  3956                           ;mcc_generated_files/mtouch/mtouch_sensor_scan.c: 92:     _delay(8u);
  3957  02A3  3200               	nop2	;2 cycle nop
  3958  02A4  3200               	nop2	;2 cycle nop
  3959  02A5  3200               	nop2	;2 cycle nop
  3960  02A6  3200               	nop2	;2 cycle nop
  3961  02A7  0021               	banksel	157	;# 
  3962  02A8  149D               	bsf	29,1	;# 
  3963                           
  3964                           ;mcc_generated_files/mtouch/mtouch_sensor_scan.c: 99:     _delay(3u);
  3965  02A9  3200               	nop2	;2 cycle nop
  3966  02AA  0000               	nop
  3967  02AB  0022               	banksel	268	;# 
  3968  02AC  168C               	bsf	12,5	;# 
  3969  02AD  1280               	bcf	0,5	;# 
  3970  02AE  0008               	return
  3971  02AF                     __end_of_MTOUCH_CVD_ScanA_0:	
  3972                           
  3973                           	psect	text33
  3974  0053                     __ptext33:	
  3975 ;; *************** function _MTOUCH_Sensor_Scan_Initialize *****************
  3976 ;; Defined at:
  3977 ;;		line 171 in file "mcc_generated_files/mtouch/mtouch_sensor.c"
  3978 ;; Parameters:    Size  Location     Type
  3979 ;;		None
  3980 ;; Auto vars:     Size  Location     Type
  3981 ;;		None
  3982 ;; Return value:  Size  Location     Type
  3983 ;;                  1    wreg      void 
  3984 ;; Registers used:
  3985 ;;		wreg, status,2
  3986 ;; Tracked objects:
  3987 ;;		On entry : 0/1
  3988 ;;		On exit  : 1F/1
  3989 ;;		Unchanged: 0/0
  3990 ;; Data sizes:     COMMON   BANK0   BANK1   BANK2
  3991 ;;      Params:         0       0       0       0
  3992 ;;      Locals:         0       0       0       0
  3993 ;;      Temps:          0       0       0       0
  3994 ;;      Totals:         0       0       0       0
  3995 ;;Total ram usage:        0 bytes
  3996 ;; Hardware stack levels used:    1
  3997 ;; This function calls:
  3998 ;;		Nothing
  3999 ;; This function is called by:
  4000 ;;		_Sensor_Acq_ExecutePacket
  4001 ;;		_MTOUCH_Initialize
  4002 ;; This function uses a non-reentrant model
  4003 ;;
  4004                           
  4005                           
  4006                           ;psect for function _MTOUCH_Sensor_Scan_Initialize
  4007  0053                     _MTOUCH_Sensor_Scan_Initialize:	
  4008                           
  4009                           ;mcc_generated_files/mtouch/mtouch_sensor.c: 174:     ADCON0 = (uint8_t)0;
  4010                           
  4011                           ;incstack = 0
  4012                           ; Regs used in _MTOUCH_Sensor_Scan_Initialize: [wreg+status,2]
  4013  0053  0021               	movlb	1	; select bank1
  4014  0054  019D               	clrf	29	;volatile
  4015                           
  4016                           ;mcc_generated_files/mtouch/mtouch_sensor.c: 175:     ADCON1 = (uint8_t)( 0x1<<7 | 0x5<<
      +                          4 | 0x0 );
  4017  0055  30D0               	movlw	208
  4018  0056  009E               	movwf	30	;volatile
  4019  0057  0008               	return
  4020  0058                     __end_of_MTOUCH_Sensor_Scan_Initialize:	
  4021                           
  4022                           	psect	text34
  4023  00F9                     __ptext34:	
  4024 ;; *************** function _MTOUCH_Random *****************
  4025 ;; Defined at:
  4026 ;;		line 66 in file "mcc_generated_files/mtouch/mtouch_random.c"
  4027 ;; Parameters:    Size  Location     Type
  4028 ;;		None
  4029 ;; Auto vars:     Size  Location     Type
  4030 ;;		None
  4031 ;; Return value:  Size  Location     Type
  4032 ;;                  1    wreg      unsigned char 
  4033 ;; Registers used:
  4034 ;;		wreg, status,2, status,0
  4035 ;; Tracked objects:
  4036 ;;		On entry : 1F/0
  4037 ;;		On exit  : 1F/0
  4038 ;;		Unchanged: 0/0
  4039 ;; Data sizes:     COMMON   BANK0   BANK1   BANK2
  4040 ;;      Params:         0       0       0       0
  4041 ;;      Locals:         0       0       0       0
  4042 ;;      Temps:          1       0       0       0
  4043 ;;      Totals:         1       0       0       0
  4044 ;;Total ram usage:        1 bytes
  4045 ;; Hardware stack levels used:    1
  4046 ;; This function calls:
  4047 ;;		Nothing
  4048 ;; This function is called by:
  4049 ;;		_Sensor_Acq_ExecutePacket
  4050 ;; This function uses a non-reentrant model
  4051 ;;
  4052                           
  4053                           
  4054                           ;psect for function _MTOUCH_Random
  4055  00F9                     _MTOUCH_Random:	
  4056                           
  4057                           ;mcc_generated_files/mtouch/mtouch_random.c: 68:     static MTOUCH_RANDOM_t seed = (MTOU
      +                          CH_RANDOM_t)0;;mcc_generated_files/mtouch/mtouch_random.c: 70:     if ((seed & (MTOUCH_R
      +                          ANDOM_t)1) != (MTOUCH_RANDOM_t)0)
  4058                           
  4059                           ;incstack = 0
  4060                           ; Regs used in _MTOUCH_Random: [wreg+status,2+status,0]
  4061  00F9  1C23               	btfss	MTOUCH_Random@seed,0
  4062  00FA  28FD               	goto	l1809
  4063                           
  4064                           ;mcc_generated_files/mtouch/mtouch_random.c: 71:     {;mcc_generated_files/mtouch/mtouch
      +                          _random.c: 73:         seed = seed >> (uint8_t)1;
  4065  00FB  3623               	lsrf	MTOUCH_Random@seed,w
  4066  00FC  2903               	goto	L2
  4067  00FD                     l1809:	
  4068                           ;mcc_generated_files/mtouch/mtouch_random.c: 74:     }
  4069                           
  4070                           
  4071                           ;mcc_generated_files/mtouch/mtouch_random.c: 76:     {;mcc_generated_files/mtouch/mtouch
      +                          _random.c: 81:         seed = seed >> (uint8_t)1;
  4072  00FD  3623               	lsrf	MTOUCH_Random@seed,w
  4073  00FE  00F0               	movwf	??_MTOUCH_Random
  4074  00FF  0870               	movf	??_MTOUCH_Random,w
  4075  0100  00A3               	movwf	MTOUCH_Random@seed
  4076                           
  4077                           ;mcc_generated_files/mtouch/mtouch_random.c: 82:         seed = seed ^ (MTOUCH_RANDOM_t)
      +                          0xB4;
  4078  0101  0823               	movf	MTOUCH_Random@seed,w
  4079  0102  3AB4               	xorlw	180
  4080  0103                     L2:	
  4081  0103  00F0               	movwf	??_MTOUCH_Random
  4082  0104  0870               	movf	??_MTOUCH_Random,w
  4083  0105  00A3               	movwf	MTOUCH_Random@seed
  4084                           
  4085                           ;mcc_generated_files/mtouch/mtouch_random.c: 85:     return (uint8_t)seed & 0x0F;
  4086  0106  0823               	movf	MTOUCH_Random@seed,w
  4087  0107  390F               	andlw	15
  4088  0108  0008               	return
  4089  0109                     __end_of_MTOUCH_Random:	
  4090                           
  4091                           	psect	text35
  4092  0097                     __ptext35:	
  4093 ;; *************** function _MTOUCH_Delay *****************
  4094 ;; Defined at:
  4095 ;;		line 360 in file "mcc_generated_files/mtouch/mtouch_sensor.c"
  4096 ;; Parameters:    Size  Location     Type
  4097 ;;		None
  4098 ;; Auto vars:     Size  Location     Type
  4099 ;;  i               1    1[COMMON] unsigned char 
  4100 ;; Return value:  Size  Location     Type
  4101 ;;                  1    wreg      void 
  4102 ;; Registers used:
  4103 ;;		wreg, status,2, status,0
  4104 ;; Tracked objects:
  4105 ;;		On entry : 1F/0
  4106 ;;		On exit  : 1F/0
  4107 ;;		Unchanged: 0/0
  4108 ;; Data sizes:     COMMON   BANK0   BANK1   BANK2
  4109 ;;      Params:         0       0       0       0
  4110 ;;      Locals:         1       0       0       0
  4111 ;;      Temps:          1       0       0       0
  4112 ;;      Totals:         2       0       0       0
  4113 ;;Total ram usage:        2 bytes
  4114 ;; Hardware stack levels used:    1
  4115 ;; This function calls:
  4116 ;;		Nothing
  4117 ;; This function is called by:
  4118 ;;		_Sensor_Acq_ExecutePacket
  4119 ;; This function uses a non-reentrant model
  4120 ;;
  4121                           
  4122                           
  4123                           ;psect for function _MTOUCH_Delay
  4124  0097                     _MTOUCH_Delay:	
  4125                           
  4126                           ;mcc_generated_files/mtouch/mtouch_sensor.c: 362:     for(uint8_t i = sample_delay;i>0;i
      +                          --)
  4127                           
  4128                           ;incstack = 0
  4129                           ; Regs used in _MTOUCH_Delay: [wreg+status,2+status,0]
  4130  0097  0825               	movf	_sample_delay,w
  4131  0098  00F0               	movwf	??_MTOUCH_Delay
  4132  0099  0870               	movf	??_MTOUCH_Delay,w
  4133  009A  00F1               	movwf	MTOUCH_Delay@i
  4134  009B                     L3:	
  4135  009B  0871               	movf	MTOUCH_Delay@i,w
  4136  009C  1903               	btfsc	3,2
  4137  009D  0008               	return
  4138                           
  4139                           ;mcc_generated_files/mtouch/mtouch_sensor.c: 363:     { }
  4140  009E  3001               	movlw	1
  4141  009F  02F1               	subwf	MTOUCH_Delay@i,f
  4142  00A0  289B               	goto	L3
  4143  00A1                     __end_of_MTOUCH_Delay:	
  4144                           
  4145                           	psect	text36
  4146  0044                     __ptext36:	
  4147 ;; *************** function _MTOUCH_Proximity_ServiceAll *****************
  4148 ;; Defined at:
  4149 ;;		line 169 in file "mcc_generated_files/mtouch/mtouch_proximity.c"
  4150 ;; Parameters:    Size  Location     Type
  4151 ;;		None
  4152 ;; Auto vars:     Size  Location     Type
  4153 ;;		None
  4154 ;; Return value:  Size  Location     Type
  4155 ;;                  1    wreg      void 
  4156 ;; Registers used:
  4157 ;;		wreg, fsr0l, fsr0h, fsr1l, fsr1h, status,2, status,0, pclath, cstack
  4158 ;; Tracked objects:
  4159 ;;		On entry : 1F/0
  4160 ;;		On exit  : 0/0
  4161 ;;		Unchanged: 0/0
  4162 ;; Data sizes:     COMMON   BANK0   BANK1   BANK2
  4163 ;;      Params:         0       0       0       0
  4164 ;;      Locals:         0       0       0       0
  4165 ;;      Temps:          0       0       0       0
  4166 ;;      Totals:         0       0       0       0
  4167 ;;Total ram usage:        0 bytes
  4168 ;; Hardware stack levels used:    1
  4169 ;; Hardware stack levels required when called:    5
  4170 ;; This function calls:
  4171 ;;		_Proximity_Service
  4172 ;; This function is called by:
  4173 ;;		_MTOUCH_Service_Mainloop
  4174 ;; This function uses a non-reentrant model
  4175 ;;
  4176                           
  4177                           
  4178                           ;psect for function _MTOUCH_Proximity_ServiceAll
  4179  0044                     _MTOUCH_Proximity_ServiceAll:	
  4180                           
  4181                           ;mcc_generated_files/mtouch/mtouch_proximity.c: 171:     Proximity_Service(Proximity_Wea
      +                          ringDetect);
  4182                           
  4183                           ;incstack = 0
  4184                           ; Regs used in _MTOUCH_Proximity_ServiceAll: [wreg-fsr1h+status,2+status,0+pclath+cstack
      +                          ]
  4185  0044  3000               	movlw	0
  4186  0045  23BA               	fcall	_Proximity_Service
  4187  0046  0008               	return
  4188  0047                     __end_of_MTOUCH_Proximity_ServiceAll:	
  4189                           
  4190                           	psect	text37
  4191  03BA                     __ptext37:	
  4192 ;; *************** function _Proximity_Service *****************
  4193 ;; Defined at:
  4194 ;;		line 179 in file "mcc_generated_files/mtouch/mtouch_proximity.c"
  4195 ;; Parameters:    Size  Location     Type
  4196 ;;  name            1    wreg     enum E1553
  4197 ;; Auto vars:     Size  Location     Type
  4198 ;;  name            1   17[BANK0 ] enum E1553
  4199 ;;  prox            1   18[BANK0 ] PTR struct .
  4200 ;;		 -> mtouch_proximity(18), 
  4201 ;; Return value:  Size  Location     Type
  4202 ;;                  1    wreg      void 
  4203 ;; Registers used:
  4204 ;;		wreg, fsr0l, fsr0h, fsr1l, fsr1h, status,2, status,0, pclath, cstack
  4205 ;; Tracked objects:
  4206 ;;		On entry : 1F/0
  4207 ;;		On exit  : 0/0
  4208 ;;		Unchanged: 0/0
  4209 ;; Data sizes:     COMMON   BANK0   BANK1   BANK2
  4210 ;;      Params:         0       0       0       0
  4211 ;;      Locals:         0       2       0       0
  4212 ;;      Temps:          0       1       0       0
  4213 ;;      Totals:         0       3       0       0
  4214 ;;Total ram usage:        3 bytes
  4215 ;; Hardware stack levels used:    1
  4216 ;; Hardware stack levels required when called:    4
  4217 ;; This function calls:
  4218 ;;		_MTOUCH_Proximity_Initialize
  4219 ;;		_MTOUCH_Sensor_isCalibrated
  4220 ;;		_MTOUCH_Sensor_wasSampled
  4221 ;;		_Proximity_Deviation_Update
  4222 ;;		_Proximity_Reading_Update
  4223 ;;		_Proximity_State_Activated
  4224 ;;		_Proximity_State_Initializing
  4225 ;;		_Proximity_State_NotActivated
  4226 ;; This function is called by:
  4227 ;;		_MTOUCH_Proximity_ServiceAll
  4228 ;; This function uses a non-reentrant model
  4229 ;;
  4230                           
  4231                           
  4232                           ;psect for function _Proximity_Service
  4233  03BA                     _Proximity_Service:	
  4234                           
  4235                           ;incstack = 0
  4236                           ; Regs used in _Proximity_Service: [wreg-fsr1h+status,2+status,0+pclath+cstack]
  4237                           ;Proximity_Service@name stored from wreg
  4238  03BA  00E5               	movwf	Proximity_Service@name
  4239                           
  4240                           ;mcc_generated_files/mtouch/mtouch_proximity.c: 179: static void Proximity_Service(enum 
      +                          mtouch_proximity_names name);mcc_generated_files/mtouch/mtouch_proximity.c: 180: {;mcc_g
      +                          enerated_files/mtouch/mtouch_proximity.c: 181:     mtouch_proximity_t* prox = &mtouch_pr
      +                          oximity[name];
  4241  03BB  0E65               	swapf	Proximity_Service@name,w
  4242  03BC  39F0               	andlw	240
  4243  03BD  0765               	addwf	Proximity_Service@name,w
  4244  03BE  0765               	addwf	Proximity_Service@name,w
  4245  03BF  3E29               	addlw	(low (_mtouch_proximity| 0))& (0+255)
  4246  03C0  00E4               	movwf	??_Proximity_Service
  4247  03C1  0864               	movf	??_Proximity_Service,w
  4248  03C2  00E6               	movwf	Proximity_Service@prox
  4249                           
  4250                           ;mcc_generated_files/mtouch/mtouch_proximity.c: 183:     if (MTOUCH_Sensor_wasSampled(pr
      +                          ox->sensor) && MTOUCH_Sensor_isCalibrated(prox->sensor))
  4251  03C3  0A66               	incf	Proximity_Service@prox,w
  4252  03C4  0086               	movwf	6
  4253  03C5  0187               	clrf	7
  4254  03C6  0801               	movf	1,w
  4255  03C7  215C               	fcall	_MTOUCH_Sensor_wasSampled
  4256  03C8  3A00               	xorlw	0
  4257  03C9  1903               	skipnz
  4258  03CA  0008               	return
  4259  03CB  0020               	movlb	0	; select bank0
  4260  03CC  0A66               	incf	Proximity_Service@prox,w
  4261  03CD  0086               	movwf	6
  4262  03CE  0187               	clrf	7
  4263  03CF  0801               	movf	1,w
  4264  03D0  203E               	fcall	_MTOUCH_Sensor_isCalibrated
  4265  03D1  3A00               	xorlw	0
  4266  03D2  1903               	skipnz
  4267  03D3  0008               	return
  4268                           
  4269                           ;mcc_generated_files/mtouch/mtouch_proximity.c: 184:     {;mcc_generated_files/mtouch/mt
      +                          ouch_proximity.c: 185:         Proximity_Reading_Update(prox);
  4270  03D4  0866               	movf	Proximity_Service@prox,w
  4271  03D5  20A1               	fcall	_Proximity_Reading_Update
  4272                           
  4273                           ;mcc_generated_files/mtouch/mtouch_proximity.c: 186:         Proximity_Deviation_Update(
      +                          name);
  4274  03D6  0865               	movf	Proximity_Service@name,w
  4275  03D7  26E9               	fcall	_Proximity_Deviation_Update
  4276                           
  4277                           ;mcc_generated_files/mtouch/mtouch_proximity.c: 188:         if (prox->state >= (uint8_t
      +                          )(sizeof(Proximity_StateMachine)/sizeof(proximity_statemachine_state_t)))
  4278  03D8  0866               	movf	Proximity_Service@prox,w
  4279  03D9  3E02               	addlw	2
  4280  03DA  0086               	movwf	6
  4281  03DB  0187               	clrf	7
  4282  03DC  3003               	movlw	3
  4283  03DD  0201               	subwf	1,w
  4284  03DE  1C03               	skipc
  4285  03DF  2BE5               	goto	l2243
  4286                           
  4287                           ;mcc_generated_files/mtouch/mtouch_proximity.c: 189:         {;mcc_generated_files/mtouc
      +                          h/mtouch_proximity.c: 190:             MTOUCH_Proximity_Initialize(prox->name);
  4288  03E0  0866               	movf	Proximity_Service@prox,w
  4289  03E1  0086               	movwf	6
  4290  03E2  0187               	clrf	7
  4291  03E3  0801               	movf	1,w
  4292  03E4  22D4               	fcall	_MTOUCH_Proximity_Initialize
  4293  03E5                     l2243:	
  4294                           
  4295                           ;mcc_generated_files/mtouch/mtouch_proximity.c: 192:         Proximity_StateMachine[prox
      +                          ->state](prox);
  4296  03E5  0020               	movlb	0	; select bank0
  4297  03E6  0866               	movf	Proximity_Service@prox,w
  4298  03E7  00E4               	movwf	??_Proximity_Service
  4299  03E8  0864               	movf	??_Proximity_Service,w
  4300  03E9  00D5               	movwf	Proximity_State_Activated@prox
  4301  03EA  0866               	movf	Proximity_Service@prox,w
  4302  03EB  3E02               	addlw	2
  4303  03EC  0086               	movwf	6
  4304  03ED  0187               	clrf	7
  4305  03EE  3501               	lslf	1,w
  4306  03EF  3E3B               	addlw	(low (_Proximity_StateMachine| 0))& (0+255)
  4307  03F0  0086               	movwf	6
  4308  03F1  0187               	clrf	7
  4309  03F2  3F41               	moviw [1]fsr1
  4310  03F3  008A               	movwf	10
  4311  03F4  3F40               	moviw [0]fsr1
  4312  03F5  000A               	callw
  4313  03F6  3183               	pagesel	$
  4314  03F7  0008               	return
  4315  03F8                     __end_of_Proximity_Service:	
  4316                           
  4317                           	psect	text38
  4318  052B                     __ptext38:	
  4319 ;; *************** function _Proximity_State_Activated *****************
  4320 ;; Defined at:
  4321 ;;		line 250 in file "mcc_generated_files/mtouch/mtouch_proximity.c"
  4322 ;; Parameters:    Size  Location     Type
  4323 ;;  prox            1    1[BANK0 ] PTR struct .
  4324 ;;		 -> mtouch_proximity(18), 
  4325 ;; Auto vars:     Size  Location     Type
  4326 ;;		None
  4327 ;; Return value:  Size  Location     Type
  4328 ;;                  1    wreg      void 
  4329 ;; Registers used:
  4330 ;;		wreg, fsr0l, fsr0h, fsr1l, fsr1h, status,2, status,0, pclath, cstack
  4331 ;; Tracked objects:
  4332 ;;		On entry : 1F/0
  4333 ;;		On exit  : 0/0
  4334 ;;		Unchanged: 0/0
  4335 ;; Data sizes:     COMMON   BANK0   BANK1   BANK2
  4336 ;;      Params:         0       1       0       0
  4337 ;;      Locals:         0       0       0       0
  4338 ;;      Temps:          0       6       0       0
  4339 ;;      Totals:         0       7       0       0
  4340 ;;Total ram usage:        7 bytes
  4341 ;; Hardware stack levels used:    1
  4342 ;; Hardware stack levels required when called:    1
  4343 ;; This function calls:
  4344 ;;		_MTOUCH_Proximity_Initialize
  4345 ;;		_Proximity_DefaultCallback
  4346 ;;		_User_Proximity_Deactived_Callback
  4347 ;; This function is called by:
  4348 ;;		_Proximity_Service
  4349 ;; This function uses a non-reentrant model
  4350 ;;
  4351                           
  4352                           
  4353                           ;psect for function _Proximity_State_Activated
  4354  052B                     _Proximity_State_Activated:	
  4355                           
  4356                           ;mcc_generated_files/mtouch/mtouch_proximity.c: 250: static void Proximity_State_Activat
      +                          ed(mtouch_proximity_t* prox);mcc_generated_files/mtouch/mtouch_proximity.c: 251: {;mcc_g
      +                          enerated_files/mtouch/mtouch_proximity.c: 253:     if ((prox->counter) >= ((mtouch_prox_
      +                          statecounter_t)1000u))
  4357                           
  4358                           ;incstack = 0
  4359                           ; Regs used in _Proximity_State_Activated: [wreg-fsr1h+status,2+status,0+pclath+cstack]
  4360  052B  0855               	movf	Proximity_State_Activated@prox,w
  4361  052C  3E0C               	addlw	12
  4362  052D  0086               	movwf	6
  4363  052E  0187               	clrf	7
  4364  052F  3F40               	moviw [0]fsr1
  4365  0530  00D6               	movwf	??_Proximity_State_Activated
  4366  0531  3F41               	moviw [1]fsr1
  4367  0532  00D7               	movwf	??_Proximity_State_Activated+1
  4368  0533  3003               	movlw	3
  4369  0534  0257               	subwf	??_Proximity_State_Activated+1,w
  4370  0535  30E8               	movlw	232
  4371  0536  1903               	skipnz
  4372  0537  0256               	subwf	??_Proximity_State_Activated,w
  4373  0538  1C03               	skipc
  4374  0539  2D4D               	goto	l2167
  4375                           
  4376                           ;mcc_generated_files/mtouch/mtouch_proximity.c: 254:     {;mcc_generated_files/mtouch/mt
      +                          ouch_proximity.c: 255:         MTOUCH_Proximity_Initialize(prox->name);
  4377  053A  0855               	movf	Proximity_State_Activated@prox,w
  4378  053B  0086               	movwf	6
  4379  053C  0187               	clrf	7
  4380  053D  0801               	movf	1,w
  4381  053E  22D4               	fcall	_MTOUCH_Proximity_Initialize
  4382                           
  4383                           ;mcc_generated_files/mtouch/mtouch_proximity.c: 256:         callback_notActivated(prox-
      +                          >name);
  4384  053F  0020               	movlb	0	; select bank0
  4385  0540  0855               	movf	Proximity_State_Activated@prox,w
  4386  0541  0086               	movwf	6
  4387  0542  0187               	clrf	7
  4388  0543  0801               	movf	1,w
  4389  0544  00D6               	movwf	??_Proximity_State_Activated
  4390  0545  0856               	movf	??_Proximity_State_Activated,w
  4391  0546  00F0               	movwf	User_Proximity_Deactived_Callback@name
  4392  0547  0842               	movf	_callback_notActivated+1,w
  4393  0548  008A               	movwf	10
  4394  0549  0841               	movf	_callback_notActivated,w
  4395  054A  000A               	callw
  4396  054B  3185               	pagesel	$
  4397                           
  4398                           ;mcc_generated_files/mtouch/mtouch_proximity.c: 257:     }
  4399  054C  0008               	return
  4400  054D                     l2167:	
  4401  054D  0855               	movf	Proximity_State_Activated@prox,w
  4402  054E  3E10               	addlw	16
  4403  054F  0086               	movwf	6
  4404  0550  0187               	clrf	7
  4405  0551  0801               	movf	1,w
  4406  0552  00D6               	movwf	??_Proximity_State_Activated
  4407  0553  3001               	movlw	1
  4408  0554                     u1145:	
  4409  0554  1003               	clrc
  4410  0555  1BD6               	btfsc	??_Proximity_State_Activated,7
  4411  0556  1403               	setc
  4412  0557  0CD6               	rrf	??_Proximity_State_Activated,f
  4413  0558  0B89               	decfsz	9,f
  4414  0559  2D54               	goto	u1145
  4415  055A  0855               	movf	Proximity_State_Activated@prox,w
  4416  055B  3E10               	addlw	16
  4417  055C  0086               	movwf	6
  4418  055D  0187               	clrf	7
  4419  055E  0856               	movf	??_Proximity_State_Activated,w
  4420  055F  0201               	subwf	1,w
  4421  0560  00D7               	movwf	??_Proximity_State_Activated+1
  4422  0561  01D8               	clrf	??_Proximity_State_Activated+2
  4423  0562  1C03               	skipc
  4424  0563  03D8               	decf	??_Proximity_State_Activated+2,f
  4425  0564  1B81               	btfsc	1,7
  4426  0565  03D8               	decf	??_Proximity_State_Activated+2,f
  4427  0566  0020               	movlb	0	; select bank0
  4428  0567  1BD6               	btfsc	??_Proximity_State_Activated,7
  4429  0568  0AD8               	incf	??_Proximity_State_Activated+2,f
  4430  0569  0020               	movlb	0	; select bank0
  4431  056A  0855               	movf	Proximity_State_Activated@prox,w
  4432  056B  3E0B               	addlw	11
  4433  056C  0086               	movwf	6
  4434  056D  0187               	clrf	7
  4435  056E  0801               	movf	1,w
  4436  056F  00D9               	movwf	??_Proximity_State_Activated+3
  4437  0570  01DA               	clrf	??_Proximity_State_Activated+4
  4438  0571  1BD9               	btfsc	??_Proximity_State_Activated+3,7
  4439  0572  03DA               	decf	??_Proximity_State_Activated+4,f
  4440  0573  085A               	movf	??_Proximity_State_Activated+4,w
  4441  0574  3A80               	xorlw	128
  4442  0575  00DB               	movwf	??_Proximity_State_Activated+5
  4443  0576  0858               	movf	??_Proximity_State_Activated+2,w
  4444  0577  3A80               	xorlw	128
  4445  0578  025B               	subwf	??_Proximity_State_Activated+5,w
  4446  0579  1D03               	skipz
  4447  057A  2D7D               	goto	u1165
  4448  057B  0857               	movf	??_Proximity_State_Activated+1,w
  4449  057C  0259               	subwf	??_Proximity_State_Activated+3,w
  4450  057D                     u1165:	
  4451  057D  1803               	skipnc
  4452  057E  0008               	return
  4453                           
  4454                           ;mcc_generated_files/mtouch/mtouch_proximity.c: 261:     {;mcc_generated_files/mtouch/mt
      +                          ouch_proximity.c: 262:         prox->state = MTOUCH_PROXIMITY_STATE_notActivated;
  4455  057F  0020               	movlb	0	; select bank0
  4456  0580  0855               	movf	Proximity_State_Activated@prox,w
  4457  0581  3E02               	addlw	2
  4458  0582  0086               	movwf	6
  4459  0583  0187               	clrf	7
  4460  0584  0181               	clrf	1
  4461  0585  0A81               	incf	1,f
  4462                           
  4463                           ;mcc_generated_files/mtouch/mtouch_proximity.c: 263:         prox->counter = (mtouch_pro
      +                          x_statecounter_t)0;
  4464  0586  0855               	movf	Proximity_State_Activated@prox,w
  4465  0587  3E0C               	addlw	12
  4466  0588  0086               	movwf	6
  4467  0589  0187               	clrf	7
  4468  058A  3000               	movlw	0
  4469  058B  3FC0               	movwi [0]fsr1
  4470  058C  3FC1               	movwi [1]fsr1
  4471                           
  4472                           ;mcc_generated_files/mtouch/mtouch_proximity.c: 264:         prox->baseline_count = (mto
      +                          uch_prox_baselinecounter_t)((0xffff))-((mtouch_prox_baselinecounter_t)1024u);
  4473  058D  0855               	movf	Proximity_State_Activated@prox,w
  4474  058E  3E0E               	addlw	14
  4475  058F  0086               	movwf	6
  4476  0590  0187               	clrf	7
  4477  0591  30FF               	movlw	255
  4478  0592  3FC0               	movwi [0]fsr1
  4479  0593  30FB               	movlw	251
  4480  0594  3FC1               	movwi [1]fsr1
  4481                           
  4482                           ;mcc_generated_files/mtouch/mtouch_proximity.c: 265:         callback_notActivated(prox-
      +                          >name);
  4483  0595  0855               	movf	Proximity_State_Activated@prox,w
  4484  0596  0086               	movwf	6
  4485  0597  0187               	clrf	7
  4486  0598  0801               	movf	1,w
  4487  0599  00D6               	movwf	??_Proximity_State_Activated
  4488  059A  0856               	movf	??_Proximity_State_Activated,w
  4489  059B  00F0               	movwf	User_Proximity_Deactived_Callback@name
  4490  059C  0842               	movf	_callback_notActivated+1,w
  4491  059D  008A               	movwf	10
  4492  059E  0841               	movf	_callback_notActivated,w
  4493  059F  000A               	callw
  4494  05A0  3185               	pagesel	$
  4495  05A1  0008               	return
  4496  05A2                     __end_of_Proximity_State_Activated:	
  4497                           
  4498                           	psect	text39
  4499  037F                     __ptext39:	
  4500 ;; *************** function _Proximity_State_Initializing *****************
  4501 ;; Defined at:
  4502 ;;		line 195 in file "mcc_generated_files/mtouch/mtouch_proximity.c"
  4503 ;; Parameters:    Size  Location     Type
  4504 ;;  prox            1    1[BANK0 ] PTR struct .
  4505 ;;		 -> mtouch_proximity(18), 
  4506 ;; Auto vars:     Size  Location     Type
  4507 ;;		None
  4508 ;; Return value:  Size  Location     Type
  4509 ;;                  1    wreg      void 
  4510 ;; Registers used:
  4511 ;;		wreg, fsr1l, fsr1h, status,2, status,0, pclath, cstack
  4512 ;; Tracked objects:
  4513 ;;		On entry : 1F/0
  4514 ;;		On exit  : 1F/0
  4515 ;;		Unchanged: 0/0
  4516 ;; Data sizes:     COMMON   BANK0   BANK1   BANK2
  4517 ;;      Params:         0       1       0       0
  4518 ;;      Locals:         0       0       0       0
  4519 ;;      Temps:          0       2       0       0
  4520 ;;      Totals:         0       3       0       0
  4521 ;;Total ram usage:        3 bytes
  4522 ;; Hardware stack levels used:    1
  4523 ;; Hardware stack levels required when called:    3
  4524 ;; This function calls:
  4525 ;;		_Proximity_Baseline_Initialize
  4526 ;;		_Proximity_Baseline_Update
  4527 ;; This function is called by:
  4528 ;;		_Proximity_Service
  4529 ;; This function uses a non-reentrant model
  4530 ;;
  4531                           
  4532                           
  4533                           ;psect for function _Proximity_State_Initializing
  4534  037F                     _Proximity_State_Initializing:	
  4535                           
  4536                           ;mcc_generated_files/mtouch/mtouch_proximity.c: 195: static void Proximity_State_Initial
      +                          izing(mtouch_proximity_t* prox);mcc_generated_files/mtouch/mtouch_proximity.c: 196: {;mc
      +                          c_generated_files/mtouch/mtouch_proximity.c: 198:     if ((prox->counter) <= (mtouch_pro
      +                          x_statecounter_t)((mtouch_prox_baselinecounter_t)16u)/2)
  4537                           
  4538                           ;incstack = 0
  4539                           ; Regs used in _Proximity_State_Initializing: [wreg+fsr1l+fsr1h+status,2+status,0+pclath
      +                          +cstack]
  4540  037F  0855               	movf	Proximity_State_Initializing@prox,w
  4541  0380  3E0C               	addlw	12
  4542  0381  0086               	movwf	6
  4543  0382  0187               	clrf	7
  4544  0383  3F40               	moviw [0]fsr1
  4545  0384  00D6               	movwf	??_Proximity_State_Initializing
  4546  0385  3F41               	moviw [1]fsr1
  4547  0386  00D7               	movwf	??_Proximity_State_Initializing+1
  4548  0387  3000               	movlw	0
  4549  0388  0257               	subwf	??_Proximity_State_Initializing+1,w
  4550  0389  3009               	movlw	9
  4551  038A  1903               	skipnz
  4552  038B  0256               	subwf	??_Proximity_State_Initializing,w
  4553  038C  1803               	skipnc
  4554  038D  2B91               	goto	l2131
  4555                           
  4556                           ;mcc_generated_files/mtouch/mtouch_proximity.c: 199:     {;mcc_generated_files/mtouch/mt
      +                          ouch_proximity.c: 200:         Proximity_Baseline_Initialize(prox);
  4557  038E  0855               	movf	Proximity_State_Initializing@prox,w
  4558  038F  22FB               	fcall	_Proximity_Baseline_Initialize
  4559                           
  4560                           ;mcc_generated_files/mtouch/mtouch_proximity.c: 201:     } else {
  4561  0390  2B93               	goto	l2133
  4562  0391                     l2131:	
  4563                           
  4564                           ;mcc_generated_files/mtouch/mtouch_proximity.c: 202:         Proximity_Baseline_Update(p
      +                          rox);
  4565  0391  0855               	movf	Proximity_State_Initializing@prox,w
  4566  0392  25A2               	fcall	_Proximity_Baseline_Update
  4567  0393                     l2133:	
  4568                           
  4569                           ;mcc_generated_files/mtouch/mtouch_proximity.c: 206:     (prox->counter)++;
  4570  0393  0020               	movlb	0	; select bank0
  4571  0394  0855               	movf	Proximity_State_Initializing@prox,w
  4572  0395  3E0C               	addlw	12
  4573  0396  0086               	movwf	6
  4574  0397  0187               	clrf	7
  4575  0398  3001               	movlw	1
  4576  0399  0781               	addwf	1,f
  4577  039A  3141               	addfsr 1,1
  4578  039B  1803               	skipnc
  4579  039C  0A81               	incf	1,f
  4580                           
  4581                           ;mcc_generated_files/mtouch/mtouch_proximity.c: 207:     if ((prox->counter) >= (mtouch_
      +                          prox_statecounter_t)((mtouch_prox_baselinecounter_t)16u))
  4582  039D  0855               	movf	Proximity_State_Initializing@prox,w
  4583  039E  3E0C               	addlw	12
  4584  039F  0086               	movwf	6
  4585  03A0  0187               	clrf	7
  4586  03A1  3F40               	moviw [0]fsr1
  4587  03A2  00D6               	movwf	??_Proximity_State_Initializing
  4588  03A3  3F41               	moviw [1]fsr1
  4589  03A4  00D7               	movwf	??_Proximity_State_Initializing+1
  4590  03A5  3000               	movlw	0
  4591  03A6  0257               	subwf	??_Proximity_State_Initializing+1,w
  4592  03A7  3010               	movlw	16
  4593  03A8  1903               	skipnz
  4594  03A9  0256               	subwf	??_Proximity_State_Initializing,w
  4595  03AA  1C03               	skipc
  4596  03AB  0008               	return
  4597                           
  4598                           ;mcc_generated_files/mtouch/mtouch_proximity.c: 208:     {;mcc_generated_files/mtouch/mt
      +                          ouch_proximity.c: 209:         prox->state = MTOUCH_PROXIMITY_STATE_notActivated;
  4599  03AC  0855               	movf	Proximity_State_Initializing@prox,w
  4600  03AD  3E02               	addlw	2
  4601  03AE  0086               	movwf	6
  4602  03AF  0187               	clrf	7
  4603  03B0  0181               	clrf	1
  4604  03B1  0A81               	incf	1,f
  4605                           
  4606                           ;mcc_generated_files/mtouch/mtouch_proximity.c: 210:         prox->counter = (mtouch_pro
      +                          x_statecounter_t)0;
  4607  03B2  0855               	movf	Proximity_State_Initializing@prox,w
  4608  03B3  3E0C               	addlw	12
  4609  03B4  0086               	movwf	6
  4610  03B5  0187               	clrf	7
  4611  03B6  3000               	movlw	0
  4612  03B7  3FC0               	movwi [0]fsr1
  4613  03B8  3FC1               	movwi [1]fsr1
  4614  03B9  0008               	return
  4615  03BA                     __end_of_Proximity_State_Initializing:	
  4616                           
  4617                           	psect	text40
  4618  0625                     __ptext40:	
  4619 ;; *************** function _Proximity_State_NotActivated *****************
  4620 ;; Defined at:
  4621 ;;		line 214 in file "mcc_generated_files/mtouch/mtouch_proximity.c"
  4622 ;; Parameters:    Size  Location     Type
  4623 ;;  prox            1    1[BANK0 ] PTR struct .
  4624 ;;		 -> mtouch_proximity(18), 
  4625 ;; Auto vars:     Size  Location     Type
  4626 ;;  deviation       4    9[BANK0 ] long 
  4627 ;; Return value:  Size  Location     Type
  4628 ;;                  1    wreg      void 
  4629 ;; Registers used:
  4630 ;;		wreg, fsr0l, fsr0h, fsr1l, fsr1h, status,2, status,0, pclath, cstack
  4631 ;; Tracked objects:
  4632 ;;		On entry : 1F/0
  4633 ;;		On exit  : 1F/0
  4634 ;;		Unchanged: 0/0
  4635 ;; Data sizes:     COMMON   BANK0   BANK1   BANK2
  4636 ;;      Params:         0       1       0       0
  4637 ;;      Locals:         0       4       0       0
  4638 ;;      Temps:          0       7       0       0
  4639 ;;      Totals:         0      12       0       0
  4640 ;;Total ram usage:       12 bytes
  4641 ;; Hardware stack levels used:    1
  4642 ;; Hardware stack levels required when called:    2
  4643 ;; This function calls:
  4644 ;;		_MTOUCH_Proximity_Baseline_Get
  4645 ;;		_MTOUCH_Proximity_Initialize
  4646 ;;		_MTOUCH_Proximity_Reading_Get
  4647 ;;		_Proximity_Baseline_Update
  4648 ;;		_Proximity_DefaultCallback
  4649 ;;		_User_Proximity_Actived_Callback
  4650 ;; This function is called by:
  4651 ;;		_Proximity_Service
  4652 ;; This function uses a non-reentrant model
  4653 ;;
  4654                           
  4655                           
  4656                           ;psect for function _Proximity_State_NotActivated
  4657  0625                     _Proximity_State_NotActivated:	
  4658                           
  4659                           ;mcc_generated_files/mtouch/mtouch_proximity.c: 214: static void Proximity_State_NotActi
      +                          vated(mtouch_proximity_t* prox);mcc_generated_files/mtouch/mtouch_proximity.c: 215: {;mc
      +                          c_generated_files/mtouch/mtouch_proximity.c: 217:     int32_t deviation = (int32_t)((uin
      +                          t32_t)(MTOUCH_Proximity_Reading_Get(prox->name)) - (uint32_t)(MTOUCH_Proximity_Baseline_
      +                          Get(prox->name)));
  4660                           
  4661                           ;incstack = 0
  4662                           ; Regs used in _Proximity_State_NotActivated: [wreg-fsr1h+status,2+status,0+pclath+cstac
      +                          k]
  4663  0625  0855               	movf	Proximity_State_NotActivated@prox,w
  4664  0626  0086               	movwf	6
  4665  0627  0187               	clrf	7
  4666  0628  0801               	movf	1,w
  4667  0629  222A               	fcall	_MTOUCH_Proximity_Reading_Get
  4668  062A  0870               	movf	?_MTOUCH_Proximity_Reading_Get,w
  4669  062B  00D6               	movwf	??_Proximity_State_NotActivated
  4670  062C  0871               	movf	?_MTOUCH_Proximity_Reading_Get+1,w
  4671  062D  00D7               	movwf	??_Proximity_State_NotActivated+1
  4672  062E  0872               	movf	?_MTOUCH_Proximity_Reading_Get+2,w
  4673  062F  00D8               	movwf	??_Proximity_State_NotActivated+2
  4674  0630  0873               	movf	?_MTOUCH_Proximity_Reading_Get+3,w
  4675  0631  00D9               	movwf	??_Proximity_State_NotActivated+3
  4676  0632  0855               	movf	Proximity_State_NotActivated@prox,w
  4677  0633  0086               	movwf	6
  4678  0634  0187               	clrf	7
  4679  0635  0801               	movf	1,w
  4680  0636  21F9               	fcall	_MTOUCH_Proximity_Baseline_Get
  4681  0637  0879               	movf	?_MTOUCH_Proximity_Baseline_Get,w
  4682  0638  02D6               	subwf	??_Proximity_State_NotActivated,f
  4683  0639  087A               	movf	?_MTOUCH_Proximity_Baseline_Get+1,w
  4684  063A  3BD7               	subwfb	??_Proximity_State_NotActivated+1,f
  4685  063B  087B               	movf	?_MTOUCH_Proximity_Baseline_Get+2,w
  4686  063C  3BD8               	subwfb	??_Proximity_State_NotActivated+2,f
  4687  063D  087C               	movf	?_MTOUCH_Proximity_Baseline_Get+3,w
  4688  063E  3BD9               	subwfb	??_Proximity_State_NotActivated+3,f
  4689  063F  0859               	movf	??_Proximity_State_NotActivated+3,w
  4690  0640  00E0               	movwf	Proximity_State_NotActivated@deviation+3
  4691  0641  0858               	movf	??_Proximity_State_NotActivated+2,w
  4692  0642  00DF               	movwf	Proximity_State_NotActivated@deviation+2
  4693  0643  0857               	movf	??_Proximity_State_NotActivated+1,w
  4694  0644  00DE               	movwf	Proximity_State_NotActivated@deviation+1
  4695  0645  0856               	movf	??_Proximity_State_NotActivated,w
  4696  0646  00DD               	movwf	Proximity_State_NotActivated@deviation
  4697                           
  4698                           ;mcc_generated_files/mtouch/mtouch_proximity.c: 218:     if (deviation < (int32_t)(-prox
      +                          ->threshold))
  4699  0647  0855               	movf	Proximity_State_NotActivated@prox,w
  4700  0648  3E10               	addlw	16
  4701  0649  0086               	movwf	6
  4702  064A  0187               	clrf	7
  4703  064B  0801               	movf	1,w
  4704  064C  00D6               	movwf	??_Proximity_State_NotActivated
  4705  064D  01D7               	clrf	??_Proximity_State_NotActivated+1
  4706  064E  1BD6               	btfsc	??_Proximity_State_NotActivated,7
  4707  064F  03D7               	decf	??_Proximity_State_NotActivated+1,f
  4708  0650  09D6               	comf	??_Proximity_State_NotActivated,f
  4709  0651  09D7               	comf	??_Proximity_State_NotActivated+1,f
  4710  0652  0AD6               	incf	??_Proximity_State_NotActivated,f
  4711  0653  1903               	skipnz
  4712  0654  0AD7               	incf	??_Proximity_State_NotActivated+1,f
  4713  0655  0856               	movf	??_Proximity_State_NotActivated,w
  4714  0656  00D8               	movwf	??_Proximity_State_NotActivated+2
  4715  0657  0857               	movf	??_Proximity_State_NotActivated+1,w
  4716  0658  00D9               	movwf	??_Proximity_State_NotActivated+3
  4717  0659  3000               	movlw	0
  4718  065A  1BD9               	btfsc	??_Proximity_State_NotActivated+3,7
  4719  065B  30FF               	movlw	255
  4720  065C  00DA               	movwf	??_Proximity_State_NotActivated+4
  4721  065D  00DB               	movwf	??_Proximity_State_NotActivated+5
  4722  065E  0860               	movf	Proximity_State_NotActivated@deviation+3,w
  4723  065F  3A80               	xorlw	128
  4724  0660  00DC               	movwf	??_Proximity_State_NotActivated+6
  4725  0661  085B               	movf	??_Proximity_State_NotActivated+5,w
  4726  0662  3A80               	xorlw	128
  4727  0663  025C               	subwf	??_Proximity_State_NotActivated+6,w
  4728  0664  1D03               	skipz
  4729  0665  2E70               	goto	u1093
  4730  0666  085A               	movf	??_Proximity_State_NotActivated+4,w
  4731  0667  025F               	subwf	Proximity_State_NotActivated@deviation+2,w
  4732  0668  1D03               	skipz
  4733  0669  2E70               	goto	u1093
  4734  066A  0859               	movf	??_Proximity_State_NotActivated+3,w
  4735  066B  025E               	subwf	Proximity_State_NotActivated@deviation+1,w
  4736  066C  1D03               	skipz
  4737  066D  2E70               	goto	u1093
  4738  066E  0858               	movf	??_Proximity_State_NotActivated+2,w
  4739  066F  025D               	subwf	Proximity_State_NotActivated@deviation,w
  4740  0670                     u1093:	
  4741  0670  1803               	skipnc
  4742  0671  2E97               	goto	l2149
  4743                           
  4744                           ;mcc_generated_files/mtouch/mtouch_proximity.c: 219:     {;mcc_generated_files/mtouch/mt
      +                          ouch_proximity.c: 220:         (prox->counter)++;
  4745  0672  0855               	movf	Proximity_State_NotActivated@prox,w
  4746  0673  3E0C               	addlw	12
  4747  0674  0086               	movwf	6
  4748  0675  0187               	clrf	7
  4749  0676  3001               	movlw	1
  4750  0677  0781               	addwf	1,f
  4751  0678  3141               	addfsr 1,1
  4752  0679  1803               	skipnc
  4753  067A  0A81               	incf	1,f
  4754                           
  4755                           ;mcc_generated_files/mtouch/mtouch_proximity.c: 221:         if ((prox->counter) > (mtou
      +                          ch_prox_statecounter_t)((mtouch_prox_statecounter_t)32u))
  4756  067B  0855               	movf	Proximity_State_NotActivated@prox,w
  4757  067C  3E0C               	addlw	12
  4758  067D  0086               	movwf	6
  4759  067E  0187               	clrf	7
  4760  067F  3F40               	moviw [0]fsr1
  4761  0680  00D6               	movwf	??_Proximity_State_NotActivated
  4762  0681  3F41               	moviw [1]fsr1
  4763  0682  00D7               	movwf	??_Proximity_State_NotActivated+1
  4764  0683  3000               	movlw	0
  4765  0684  0257               	subwf	??_Proximity_State_NotActivated+1,w
  4766  0685  3021               	movlw	33
  4767  0686  1903               	skipnz
  4768  0687  0256               	subwf	??_Proximity_State_NotActivated,w
  4769  0688  1C03               	skipc
  4770  0689  2ECA               	goto	l306
  4771                           
  4772                           ;mcc_generated_files/mtouch/mtouch_proximity.c: 222:         {;mcc_generated_files/mtouc
      +                          h/mtouch_proximity.c: 223:             prox->counter = (mtouch_prox_statecounter_t)0;
  4773  068A  0855               	movf	Proximity_State_NotActivated@prox,w
  4774  068B  3E0C               	addlw	12
  4775  068C  0086               	movwf	6
  4776  068D  0187               	clrf	7
  4777  068E  3000               	movlw	0
  4778  068F  3FC0               	movwi [0]fsr1
  4779  0690  3FC1               	movwi [1]fsr1
  4780                           
  4781                           ;mcc_generated_files/mtouch/mtouch_proximity.c: 224:             MTOUCH_Proximity_Initia
      +                          lize(prox->name);
  4782  0691  0855               	movf	Proximity_State_NotActivated@prox,w
  4783  0692  0086               	movwf	6
  4784  0693  0187               	clrf	7
  4785  0694  0801               	movf	1,w
  4786  0695  22D4               	fcall	_MTOUCH_Proximity_Initialize
  4787  0696  2ECA               	goto	l306
  4788  0697                     l2149:	
  4789  0697  0855               	movf	Proximity_State_NotActivated@prox,w
  4790  0698  3E10               	addlw	16
  4791  0699  0086               	movwf	6
  4792  069A  0187               	clrf	7
  4793  069B  0801               	movf	1,w
  4794  069C  3A80               	xorlw	128
  4795  069D  00D6               	movwf	??_Proximity_State_NotActivated
  4796  069E  0855               	movf	Proximity_State_NotActivated@prox,w
  4797  069F  3E0B               	addlw	11
  4798  06A0  0086               	movwf	6
  4799  06A1  0187               	clrf	7
  4800  06A2  0801               	movf	1,w
  4801  06A3  3A80               	xorlw	128
  4802  06A4  02D6               	subwf	??_Proximity_State_NotActivated,f
  4803  06A5  1803               	skipnc
  4804  06A6  2EC3               	goto	l2155
  4805                           
  4806                           ;mcc_generated_files/mtouch/mtouch_proximity.c: 229:     {;mcc_generated_files/mtouch/mt
      +                          ouch_proximity.c: 230:         prox->state = MTOUCH_PROXIMITY_STATE_activated;
  4807  06A7  3002               	movlw	2
  4808  06A8  00D6               	movwf	??_Proximity_State_NotActivated
  4809  06A9  0855               	movf	Proximity_State_NotActivated@prox,w
  4810  06AA  3E02               	addlw	2
  4811  06AB  0086               	movwf	6
  4812  06AC  0187               	clrf	7
  4813  06AD  0856               	movf	??_Proximity_State_NotActivated,w
  4814  06AE  0081               	movwf	1
  4815                           
  4816                           ;mcc_generated_files/mtouch/mtouch_proximity.c: 231:         prox->counter = (mtouch_pro
      +                          x_statecounter_t)0;
  4817  06AF  0855               	movf	Proximity_State_NotActivated@prox,w
  4818  06B0  3E0C               	addlw	12
  4819  06B1  0086               	movwf	6
  4820  06B2  0187               	clrf	7
  4821  06B3  3000               	movlw	0
  4822  06B4  3FC0               	movwi [0]fsr1
  4823  06B5  3FC1               	movwi [1]fsr1
  4824                           
  4825                           ;mcc_generated_files/mtouch/mtouch_proximity.c: 232:         callback_activated(prox->na
      +                          me);
  4826  06B6  0855               	movf	Proximity_State_NotActivated@prox,w
  4827  06B7  0086               	movwf	6
  4828  06B8  0187               	clrf	7
  4829  06B9  0801               	movf	1,w
  4830  06BA  00D6               	movwf	??_Proximity_State_NotActivated
  4831  06BB  0856               	movf	??_Proximity_State_NotActivated,w
  4832  06BC  00F0               	movwf	User_Proximity_Actived_Callback@name
  4833  06BD  0844               	movf	_callback_activated+1,w
  4834  06BE  008A               	movwf	10
  4835  06BF  0843               	movf	_callback_activated,w
  4836  06C0  000A               	callw
  4837  06C1  3186               	pagesel	$
  4838                           
  4839                           ;mcc_generated_files/mtouch/mtouch_proximity.c: 233:     }
  4840  06C2  2ECA               	goto	l306
  4841  06C3                     l2155:	
  4842                           
  4843                           ;mcc_generated_files/mtouch/mtouch_proximity.c: 235:     {;mcc_generated_files/mtouch/mt
      +                          ouch_proximity.c: 237:         prox->counter = (mtouch_prox_statecounter_t)0;
  4844  06C3  0855               	movf	Proximity_State_NotActivated@prox,w
  4845  06C4  3E0C               	addlw	12
  4846  06C5  0086               	movwf	6
  4847  06C6  0187               	clrf	7
  4848  06C7  3000               	movlw	0
  4849  06C8  3FC0               	movwi [0]fsr1
  4850  06C9  3FC1               	movwi [1]fsr1
  4851  06CA                     l306:	
  4852                           
  4853                           ;mcc_generated_files/mtouch/mtouch_proximity.c: 242:     (prox->baseline_count)++;
  4854  06CA  0020               	movlb	0	; select bank0
  4855  06CB  0855               	movf	Proximity_State_NotActivated@prox,w
  4856  06CC  3E0E               	addlw	14
  4857  06CD  0086               	movwf	6
  4858  06CE  0187               	clrf	7
  4859  06CF  3001               	movlw	1
  4860  06D0  0781               	addwf	1,f
  4861  06D1  3141               	addfsr 1,1
  4862  06D2  1803               	skipnc
  4863  06D3  0A81               	incf	1,f
  4864                           
  4865                           ;mcc_generated_files/mtouch/mtouch_proximity.c: 243:     if ((prox->baseline_count) == (
      +                          (mtouch_prox_baselinecounter_t)128u))
  4866  06D4  0855               	movf	Proximity_State_NotActivated@prox,w
  4867  06D5  3E0E               	addlw	14
  4868  06D6  0086               	movwf	6
  4869  06D7  0187               	clrf	7
  4870  06D8  0016               	moviw fsr1++
  4871  06D9  3A80               	xorlw	128
  4872  06DA  00D6               	movwf	??_Proximity_State_NotActivated
  4873  06DB  0016               	moviw fsr1++
  4874  06DC  04D6               	iorwf	??_Proximity_State_NotActivated,f
  4875  06DD  1D03               	btfss	3,2
  4876  06DE  0008               	return
  4877                           
  4878                           ;mcc_generated_files/mtouch/mtouch_proximity.c: 244:     {;mcc_generated_files/mtouch/mt
      +                          ouch_proximity.c: 245:         prox->baseline_count = (mtouch_prox_baselinecounter_t)0;
  4879  06DF  0855               	movf	Proximity_State_NotActivated@prox,w
  4880  06E0  3E0E               	addlw	14
  4881  06E1  0086               	movwf	6
  4882  06E2  0187               	clrf	7
  4883  06E3  3000               	movlw	0
  4884  06E4  3FC0               	movwi [0]fsr1
  4885  06E5  3FC1               	movwi [1]fsr1
  4886                           
  4887                           ;mcc_generated_files/mtouch/mtouch_proximity.c: 246:         Proximity_Baseline_Update(p
      +                          rox);
  4888  06E6  0855               	movf	Proximity_State_NotActivated@prox,w
  4889  06E7  25A2               	fcall	_Proximity_Baseline_Update
  4890  06E8  0008               	return
  4891  06E9                     __end_of_Proximity_State_NotActivated:	
  4892                           
  4893                           	psect	text41
  4894  0180                     __ptext41:	
  4895 ;; *************** function _User_Proximity_Deactived_Callback *****************
  4896 ;; Defined at:
  4897 ;;		line 520 in file "mcc_generated_files/mtouch/mtouch_proximity.c"
  4898 ;; Parameters:    Size  Location     Type
  4899 ;;  name            1    0[COMMON] enum E1553
  4900 ;; Auto vars:     Size  Location     Type
  4901 ;;		None
  4902 ;; Return value:  Size  Location     Type
  4903 ;;                  1    wreg      void 
  4904 ;; Registers used:
  4905 ;;		wreg, fsr0l, fsr0h, status,2, status,0
  4906 ;; Tracked objects:
  4907 ;;		On entry : 1F/0
  4908 ;;		On exit  : 1D/0
  4909 ;;		Unchanged: 0/0
  4910 ;; Data sizes:     COMMON   BANK0   BANK1   BANK2
  4911 ;;      Params:         1       0       0       0
  4912 ;;      Locals:         0       0       0       0
  4913 ;;      Temps:          2       0       0       0
  4914 ;;      Totals:         3       0       0       0
  4915 ;;Total ram usage:        3 bytes
  4916 ;; Hardware stack levels used:    1
  4917 ;; This function calls:
  4918 ;;		Nothing
  4919 ;; This function is called by:
  4920 ;;		_main
  4921 ;;		_Proximity_State_Activated
  4922 ;; This function uses a non-reentrant model
  4923 ;;
  4924                           
  4925                           
  4926                           ;psect for function _User_Proximity_Deactived_Callback
  4927  0180                     _User_Proximity_Deactived_Callback:	
  4928                           
  4929                           ;mcc_generated_files/mtouch/mtouch_proximity.c: 520: void User_Proximity_Deactived_Callb
      +                          ack(enum mtouch_proximity_names name);mcc_generated_files/mtouch/mtouch_proximity.c: 521
      +                          : {;mcc_generated_files/mtouch/mtouch_proximity.c: 522:     switch(name)
  4930                           
  4931                           ;incstack = 0
  4932                           ; Regs used in _User_Proximity_Deactived_Callback: [wreg-fsr0h+status,2+status,0]
  4933  0180  2984               	goto	l2013
  4934  0181                     l436:	
  4935                           ;mcc_generated_files/mtouch/mtouch_proximity.c: 525:             do { LATAbits.LATA2 = 0
      +                          ; } while(0);
  4936                           
  4937  0181  0022               	movlb	2	; select bank2
  4938  0182  110C               	bcf	12,2	;volatile
  4939  0183  0008               	return
  4940  0184                     l2013:	
  4941  0184  0870               	movf	User_Proximity_Deactived_Callback@name,w
  4942  0185  00F1               	movwf	??_User_Proximity_Deactived_Callback
  4943  0186  01F2               	clrf	??_User_Proximity_Deactived_Callback+1
  4944                           
  4945                           ; Switch on 2 bytes has been partitioned into a top level switch of size 1, and 1 sub-sw
      +                          itches
  4946                           ; Switch size 1, requested type "simple"
  4947                           ; Number of cases is 1, Range of values is 0 to 0
  4948                           ; switch strategies available:
  4949                           ; Name         Instructions Cycles
  4950                           ; simple_byte            4     3 (average)
  4951                           ; direct_byte            8     6 (fixed)
  4952                           ; jumptable            260     6 (fixed)
  4953                           ;	Chosen strategy is simple_byte
  4954  0187  0872               	movf	??_User_Proximity_Deactived_Callback+1,w
  4955  0188  3A00               	xorlw	0	; case 0
  4956  0189  1903               	skipnz
  4957  018A  298C               	goto	l2423
  4958  018B  2991               	goto	l440
  4959  018C                     l2423:	
  4960                           
  4961                           ; Switch size 1, requested type "simple"
  4962                           ; Number of cases is 1, Range of values is 0 to 0
  4963                           ; switch strategies available:
  4964                           ; Name         Instructions Cycles
  4965                           ; simple_byte            4     3 (average)
  4966                           ; direct_byte            8     6 (fixed)
  4967                           ; jumptable            260     6 (fixed)
  4968                           ;	Chosen strategy is simple_byte
  4969  018C  0871               	movf	??_User_Proximity_Deactived_Callback,w
  4970  018D  3A00               	xorlw	0	; case 0
  4971  018E  1903               	skipnz
  4972  018F  2981               	goto	l436
  4973  0190  2991               	goto	l440
  4974  0191                     l440:	
  4975  0191  0008               	return
  4976  0192                     __end_of_User_Proximity_Deactived_Callback:	
  4977                           
  4978                           	psect	text42
  4979  003C                     __ptext42:	
  4980 ;; *************** function _Proximity_DefaultCallback *****************
  4981 ;; Defined at:
  4982 ;;		line 472 in file "mcc_generated_files/mtouch/mtouch_proximity.c"
  4983 ;; Parameters:    Size  Location     Type
  4984 ;;  name            1    0[COMMON] enum E1553
  4985 ;; Auto vars:     Size  Location     Type
  4986 ;;		None
  4987 ;; Return value:  Size  Location     Type
  4988 ;;                  1    wreg      void 
  4989 ;; Registers used:
  4990 ;;		None
  4991 ;; Tracked objects:
  4992 ;;		On entry : 1F/0
  4993 ;;		On exit  : 1F/0
  4994 ;;		Unchanged: 1F/0
  4995 ;; Data sizes:     COMMON   BANK0   BANK1   BANK2
  4996 ;;      Params:         1       0       0       0
  4997 ;;      Locals:         0       0       0       0
  4998 ;;      Temps:          0       0       0       0
  4999 ;;      Totals:         1       0       0       0
  5000 ;;Total ram usage:        1 bytes
  5001 ;; Hardware stack levels used:    1
  5002 ;; This function calls:
  5003 ;;		Nothing
  5004 ;; This function is called by:
  5005 ;;		_Proximity_State_NotActivated
  5006 ;;		_Proximity_State_Activated
  5007 ;; This function uses a non-reentrant model
  5008 ;;
  5009                           
  5010                           
  5011                           ;psect for function _Proximity_DefaultCallback
  5012  003C                     _Proximity_DefaultCallback:	
  5013                           
  5014                           ;incstack = 0
  5015                           ; Regs used in _Proximity_DefaultCallback: []
  5016  003C  0008               	return
  5017  003D                     __end_of_Proximity_DefaultCallback:	
  5018                           
  5019                           	psect	text43
  5020  016E                     __ptext43:	
  5021 ;; *************** function _User_Proximity_Actived_Callback *****************
  5022 ;; Defined at:
  5023 ;;		line 509 in file "mcc_generated_files/mtouch/mtouch_proximity.c"
  5024 ;; Parameters:    Size  Location     Type
  5025 ;;  name            1    0[COMMON] enum E1553
  5026 ;; Auto vars:     Size  Location     Type
  5027 ;;		None
  5028 ;; Return value:  Size  Location     Type
  5029 ;;                  1    wreg      void 
  5030 ;; Registers used:
  5031 ;;		wreg, fsr0l, fsr0h, status,2, status,0
  5032 ;; Tracked objects:
  5033 ;;		On entry : 1F/0
  5034 ;;		On exit  : 1D/0
  5035 ;;		Unchanged: 0/0
  5036 ;; Data sizes:     COMMON   BANK0   BANK1   BANK2
  5037 ;;      Params:         1       0       0       0
  5038 ;;      Locals:         0       0       0       0
  5039 ;;      Temps:          2       0       0       0
  5040 ;;      Totals:         3       0       0       0
  5041 ;;Total ram usage:        3 bytes
  5042 ;; Hardware stack levels used:    1
  5043 ;; This function calls:
  5044 ;;		Nothing
  5045 ;; This function is called by:
  5046 ;;		_main
  5047 ;;		_Proximity_State_NotActivated
  5048 ;; This function uses a non-reentrant model
  5049 ;;
  5050                           
  5051                           
  5052                           ;psect for function _User_Proximity_Actived_Callback
  5053  016E                     _User_Proximity_Actived_Callback:	
  5054                           
  5055                           ;mcc_generated_files/mtouch/mtouch_proximity.c: 509: void User_Proximity_Actived_Callbac
      +                          k(enum mtouch_proximity_names name);mcc_generated_files/mtouch/mtouch_proximity.c: 510: 
      +                          {;mcc_generated_files/mtouch/mtouch_proximity.c: 511:     switch(name)
  5056                           
  5057                           ;incstack = 0
  5058                           ; Regs used in _User_Proximity_Actived_Callback: [wreg-fsr0h+status,2+status,0]
  5059  016E  2972               	goto	l2003
  5060  016F                     l427:	
  5061                           ;mcc_generated_files/mtouch/mtouch_proximity.c: 514:             do { LATAbits.LATA2 = 1
      +                          ; } while(0);
  5062                           
  5063  016F  0022               	movlb	2	; select bank2
  5064  0170  150C               	bsf	12,2	;volatile
  5065  0171  0008               	return
  5066  0172                     l2003:	
  5067  0172  0870               	movf	User_Proximity_Actived_Callback@name,w
  5068  0173  00F1               	movwf	??_User_Proximity_Actived_Callback
  5069  0174  01F2               	clrf	??_User_Proximity_Actived_Callback+1
  5070                           
  5071                           ; Switch on 2 bytes has been partitioned into a top level switch of size 1, and 1 sub-sw
      +                          itches
  5072                           ; Switch size 1, requested type "simple"
  5073                           ; Number of cases is 1, Range of values is 0 to 0
  5074                           ; switch strategies available:
  5075                           ; Name         Instructions Cycles
  5076                           ; simple_byte            4     3 (average)
  5077                           ; direct_byte            8     6 (fixed)
  5078                           ; jumptable            260     6 (fixed)
  5079                           ;	Chosen strategy is simple_byte
  5080  0175  0872               	movf	??_User_Proximity_Actived_Callback+1,w
  5081  0176  3A00               	xorlw	0	; case 0
  5082  0177  1903               	skipnz
  5083  0178  297A               	goto	l2425
  5084  0179  297F               	goto	l431
  5085  017A                     l2425:	
  5086                           
  5087                           ; Switch size 1, requested type "simple"
  5088                           ; Number of cases is 1, Range of values is 0 to 0
  5089                           ; switch strategies available:
  5090                           ; Name         Instructions Cycles
  5091                           ; simple_byte            4     3 (average)
  5092                           ; direct_byte            8     6 (fixed)
  5093                           ; jumptable            260     6 (fixed)
  5094                           ;	Chosen strategy is simple_byte
  5095  017A  0871               	movf	??_User_Proximity_Actived_Callback,w
  5096  017B  3A00               	xorlw	0	; case 0
  5097  017C  1903               	skipnz
  5098  017D  296F               	goto	l427
  5099  017E  297F               	goto	l431
  5100  017F                     l431:	
  5101  017F  0008               	return
  5102  0180                     __end_of_User_Proximity_Actived_Callback:	
  5103                           
  5104                           	psect	text44
  5105  05A2                     __ptext44:	
  5106 ;; *************** function _Proximity_Baseline_Update *****************
  5107 ;; Defined at:
  5108 ;;		line 436 in file "mcc_generated_files/mtouch/mtouch_proximity.c"
  5109 ;; Parameters:    Size  Location     Type
  5110 ;;  prox            1    wreg     PTR struct .
  5111 ;;		 -> mtouch_proximity(18), 
  5112 ;; Auto vars:     Size  Location     Type
  5113 ;;  prox            1    4[COMMON] PTR struct .
  5114 ;;		 -> mtouch_proximity(18), 
  5115 ;; Return value:  Size  Location     Type
  5116 ;;                  1    wreg      void 
  5117 ;; Registers used:
  5118 ;;		wreg, fsr1l, fsr1h, status,2, status,0
  5119 ;; Tracked objects:
  5120 ;;		On entry : 1F/0
  5121 ;;		On exit  : 1F/0
  5122 ;;		Unchanged: 1F/0
  5123 ;; Data sizes:     COMMON   BANK0   BANK1   BANK2
  5124 ;;      Params:         0       0       0       0
  5125 ;;      Locals:         1       0       0       0
  5126 ;;      Temps:          4       0       0       0
  5127 ;;      Totals:         5       0       0       0
  5128 ;;Total ram usage:        5 bytes
  5129 ;; Hardware stack levels used:    1
  5130 ;; This function calls:
  5131 ;;		Nothing
  5132 ;; This function is called by:
  5133 ;;		_Proximity_State_Initializing
  5134 ;;		_Proximity_State_NotActivated
  5135 ;; This function uses a non-reentrant model
  5136 ;;
  5137                           
  5138                           
  5139                           ;psect for function _Proximity_Baseline_Update
  5140  05A2                     _Proximity_Baseline_Update:	
  5141                           
  5142                           ;incstack = 0
  5143                           ; Regs used in _Proximity_Baseline_Update: [wreg+fsr1l+fsr1h+status,2+status,0]
  5144                           ;Proximity_Baseline_Update@prox stored from wreg
  5145  05A2  00F4               	movwf	Proximity_Baseline_Update@prox
  5146                           
  5147                           ;mcc_generated_files/mtouch/mtouch_proximity.c: 436: static void Proximity_Baseline_Upda
      +                          te(mtouch_proximity_t* prox);mcc_generated_files/mtouch/mtouch_proximity.c: 437: {;mcc_g
      +                          enerated_files/mtouch/mtouch_proximity.c: 438:     if (GIE == (uint8_t)1)
  5148  05A3  1F8B               	btfss	11,7	;volatile
  5149  05A4  2DE6               	goto	l1965
  5150                           
  5151                           ;mcc_generated_files/mtouch/mtouch_proximity.c: 439:     {;mcc_generated_files/mtouch/mt
      +                          ouch_proximity.c: 440:         GIE = (uint8_t)0;
  5152  05A5  138B               	bcf	11,7	;volatile
  5153                           
  5154                           ;mcc_generated_files/mtouch/mtouch_proximity.c: 441:         prox->baseline -= (prox->ba
      +                          seline) >> ((uint8_t)4u);
  5155  05A6  0874               	movf	Proximity_Baseline_Update@prox,w
  5156  05A7  3E07               	addlw	7
  5157  05A8  0086               	movwf	6
  5158  05A9  0187               	clrf	7
  5159  05AA  3F40               	moviw [0]fsr1
  5160  05AB  00F0               	movwf	??_Proximity_Baseline_Update
  5161  05AC  3F41               	moviw [1]fsr1
  5162  05AD  00F1               	movwf	??_Proximity_Baseline_Update+1
  5163  05AE  3F42               	moviw [2]fsr1
  5164  05AF  00F2               	movwf	??_Proximity_Baseline_Update+2
  5165  05B0  3F43               	moviw [3]fsr1
  5166  05B1  00F3               	movwf	??_Proximity_Baseline_Update+3
  5167  05B2  3004               	movlw	4
  5168  05B3                     u845:	
  5169  05B3  36F3               	lsrf	??_Proximity_Baseline_Update+3,f
  5170  05B4  0CF2               	rrf	??_Proximity_Baseline_Update+2,f
  5171  05B5  0CF1               	rrf	??_Proximity_Baseline_Update+1,f
  5172  05B6  0CF0               	rrf	??_Proximity_Baseline_Update,f
  5173  05B7  0B89               	decfsz	9,f
  5174  05B8  2DB3               	goto	u845
  5175  05B9  0874               	movf	Proximity_Baseline_Update@prox,w
  5176  05BA  3E07               	addlw	7
  5177  05BB  0086               	movwf	6
  5178  05BC  0187               	clrf	7
  5179  05BD  0870               	movf	??_Proximity_Baseline_Update,w
  5180  05BE  0281               	subwf	1,f
  5181  05BF  3141               	addfsr 1,1
  5182  05C0  0871               	movf	??_Proximity_Baseline_Update+1,w
  5183  05C1  3B81               	subwfb	1,f
  5184  05C2  3141               	addfsr 1,1
  5185  05C3  0872               	movf	??_Proximity_Baseline_Update+2,w
  5186  05C4  3B81               	subwfb	1,f
  5187  05C5  3141               	addfsr 1,1
  5188  05C6  0873               	movf	??_Proximity_Baseline_Update+3,w
  5189  05C7  3B81               	subwfb	1,f
  5190  05C8  317D               	addfsr 1,-3
  5191                           
  5192                           ;mcc_generated_files/mtouch/mtouch_proximity.c: 442:         prox->baseline += prox->rea
      +                          ding;
  5193  05C9  0874               	movf	Proximity_Baseline_Update@prox,w
  5194  05CA  3E03               	addlw	3
  5195  05CB  0086               	movwf	6
  5196  05CC  0187               	clrf	7
  5197  05CD  3F40               	moviw [0]fsr1
  5198  05CE  00F0               	movwf	??_Proximity_Baseline_Update
  5199  05CF  3F41               	moviw [1]fsr1
  5200  05D0  00F1               	movwf	??_Proximity_Baseline_Update+1
  5201  05D1  3F42               	moviw [2]fsr1
  5202  05D2  00F2               	movwf	??_Proximity_Baseline_Update+2
  5203  05D3  3F43               	moviw [3]fsr1
  5204  05D4  00F3               	movwf	??_Proximity_Baseline_Update+3
  5205  05D5  0874               	movf	Proximity_Baseline_Update@prox,w
  5206  05D6  3E07               	addlw	7
  5207  05D7  0086               	movwf	6
  5208  05D8  0187               	clrf	7
  5209  05D9  0870               	movf	??_Proximity_Baseline_Update,w
  5210  05DA  0781               	addwf	1,f
  5211  05DB  3141               	addfsr 1,1
  5212  05DC  0871               	movf	??_Proximity_Baseline_Update+1,w
  5213  05DD  3D81               	addwfc	1,f
  5214  05DE  3141               	addfsr 1,1
  5215  05DF  0872               	movf	??_Proximity_Baseline_Update+2,w
  5216  05E0  3D81               	addwfc	1,f
  5217  05E1  3141               	addfsr 1,1
  5218  05E2  0873               	movf	??_Proximity_Baseline_Update+3,w
  5219  05E3  3D81               	addwfc	1,f
  5220                           
  5221                           ;mcc_generated_files/mtouch/mtouch_proximity.c: 443:         GIE = (uint8_t)1;
  5222  05E4  178B               	bsf	11,7	;volatile
  5223                           
  5224                           ;mcc_generated_files/mtouch/mtouch_proximity.c: 444:     }
  5225  05E5  0008               	return
  5226  05E6                     l1965:	
  5227                           
  5228                           ;mcc_generated_files/mtouch/mtouch_proximity.c: 446:     {;mcc_generated_files/mtouch/mt
      +                          ouch_proximity.c: 447:         prox->baseline -= (prox->baseline) >> ((uint8_t)4u);
  5229  05E6  0874               	movf	Proximity_Baseline_Update@prox,w
  5230  05E7  3E07               	addlw	7
  5231  05E8  0086               	movwf	6
  5232  05E9  0187               	clrf	7
  5233  05EA  3F40               	moviw [0]fsr1
  5234  05EB  00F0               	movwf	??_Proximity_Baseline_Update
  5235  05EC  3F41               	moviw [1]fsr1
  5236  05ED  00F1               	movwf	??_Proximity_Baseline_Update+1
  5237  05EE  3F42               	moviw [2]fsr1
  5238  05EF  00F2               	movwf	??_Proximity_Baseline_Update+2
  5239  05F0  3F43               	moviw [3]fsr1
  5240  05F1  00F3               	movwf	??_Proximity_Baseline_Update+3
  5241  05F2  3004               	movlw	4
  5242  05F3                     u855:	
  5243  05F3  36F3               	lsrf	??_Proximity_Baseline_Update+3,f
  5244  05F4  0CF2               	rrf	??_Proximity_Baseline_Update+2,f
  5245  05F5  0CF1               	rrf	??_Proximity_Baseline_Update+1,f
  5246  05F6  0CF0               	rrf	??_Proximity_Baseline_Update,f
  5247  05F7  0B89               	decfsz	9,f
  5248  05F8  2DF3               	goto	u855
  5249  05F9  0874               	movf	Proximity_Baseline_Update@prox,w
  5250  05FA  3E07               	addlw	7
  5251  05FB  0086               	movwf	6
  5252  05FC  0187               	clrf	7
  5253  05FD  0870               	movf	??_Proximity_Baseline_Update,w
  5254  05FE  0281               	subwf	1,f
  5255  05FF  3141               	addfsr 1,1
  5256  0600  0871               	movf	??_Proximity_Baseline_Update+1,w
  5257  0601  3B81               	subwfb	1,f
  5258  0602  3141               	addfsr 1,1
  5259  0603  0872               	movf	??_Proximity_Baseline_Update+2,w
  5260  0604  3B81               	subwfb	1,f
  5261  0605  3141               	addfsr 1,1
  5262  0606  0873               	movf	??_Proximity_Baseline_Update+3,w
  5263  0607  3B81               	subwfb	1,f
  5264  0608  317D               	addfsr 1,-3
  5265                           
  5266                           ;mcc_generated_files/mtouch/mtouch_proximity.c: 448:         prox->baseline += prox->rea
      +                          ding;
  5267  0609  0874               	movf	Proximity_Baseline_Update@prox,w
  5268  060A  3E03               	addlw	3
  5269  060B  0086               	movwf	6
  5270  060C  0187               	clrf	7
  5271  060D  3F40               	moviw [0]fsr1
  5272  060E  00F0               	movwf	??_Proximity_Baseline_Update
  5273  060F  3F41               	moviw [1]fsr1
  5274  0610  00F1               	movwf	??_Proximity_Baseline_Update+1
  5275  0611  3F42               	moviw [2]fsr1
  5276  0612  00F2               	movwf	??_Proximity_Baseline_Update+2
  5277  0613  3F43               	moviw [3]fsr1
  5278  0614  00F3               	movwf	??_Proximity_Baseline_Update+3
  5279  0615  0874               	movf	Proximity_Baseline_Update@prox,w
  5280  0616  3E07               	addlw	7
  5281  0617  0086               	movwf	6
  5282  0618  0187               	clrf	7
  5283  0619  0870               	movf	??_Proximity_Baseline_Update,w
  5284  061A  0781               	addwf	1,f
  5285  061B  3141               	addfsr 1,1
  5286  061C  0871               	movf	??_Proximity_Baseline_Update+1,w
  5287  061D  3D81               	addwfc	1,f
  5288  061E  3141               	addfsr 1,1
  5289  061F  0872               	movf	??_Proximity_Baseline_Update+2,w
  5290  0620  3D81               	addwfc	1,f
  5291  0621  3141               	addfsr 1,1
  5292  0622  0873               	movf	??_Proximity_Baseline_Update+3,w
  5293  0623  3D81               	addwfc	1,f
  5294  0624  0008               	return
  5295  0625                     __end_of_Proximity_Baseline_Update:	
  5296                           
  5297                           	psect	text45
  5298  02FB                     __ptext45:	
  5299 ;; *************** function _Proximity_Baseline_Initialize *****************
  5300 ;; Defined at:
  5301 ;;		line 430 in file "mcc_generated_files/mtouch/mtouch_proximity.c"
  5302 ;; Parameters:    Size  Location     Type
  5303 ;;  prox            1    wreg     PTR struct .
  5304 ;;		 -> mtouch_proximity(18), 
  5305 ;; Auto vars:     Size  Location     Type
  5306 ;;  prox            1   12[COMMON] PTR struct .
  5307 ;;		 -> mtouch_proximity(18), 
  5308 ;; Return value:  Size  Location     Type
  5309 ;;                  1    wreg      void 
  5310 ;; Registers used:
  5311 ;;		wreg, fsr1l, fsr1h, status,2, status,0, pclath, cstack
  5312 ;; Tracked objects:
  5313 ;;		On entry : 1F/0
  5314 ;;		On exit  : 0/0
  5315 ;;		Unchanged: 0/0
  5316 ;; Data sizes:     COMMON   BANK0   BANK1   BANK2
  5317 ;;      Params:         0       0       0       0
  5318 ;;      Locals:         1       0       0       0
  5319 ;;      Temps:          4       0       0       0
  5320 ;;      Totals:         5       0       0       0
  5321 ;;Total ram usage:        5 bytes
  5322 ;; Hardware stack levels used:    1
  5323 ;; Hardware stack levels required when called:    2
  5324 ;; This function calls:
  5325 ;;		_MTOUCH_Sensor_RawSample_Get
  5326 ;; This function is called by:
  5327 ;;		_Proximity_State_Initializing
  5328 ;; This function uses a non-reentrant model
  5329 ;;
  5330                           
  5331                           
  5332                           ;psect for function _Proximity_Baseline_Initialize
  5333  02FB                     _Proximity_Baseline_Initialize:	
  5334                           
  5335                           ;incstack = 0
  5336                           ; Regs used in _Proximity_Baseline_Initialize: [wreg+fsr1l+fsr1h+status,2+status,0+pclat
      +                          h+cstack]
  5337                           ;Proximity_Baseline_Initialize@prox stored from wreg
  5338  02FB  00FC               	movwf	Proximity_Baseline_Initialize@prox
  5339                           
  5340                           ;mcc_generated_files/mtouch/mtouch_proximity.c: 430: static void Proximity_Baseline_Init
      +                          ialize(mtouch_proximity_t* prox);mcc_generated_files/mtouch/mtouch_proximity.c: 431: {;m
      +                          cc_generated_files/mtouch/mtouch_proximity.c: 432:     prox->baseline = MTOUCH_Sensor_Ra
      +                          wSample_Get(prox->sensor);
  5341  02FC  0A7C               	incf	Proximity_Baseline_Initialize@prox,w
  5342  02FD  0086               	movwf	6
  5343  02FE  0187               	clrf	7
  5344  02FF  0801               	movf	1,w
  5345  0300  21B6               	fcall	_MTOUCH_Sensor_RawSample_Get
  5346  0301  0874               	movf	?_MTOUCH_Sensor_RawSample_Get,w
  5347  0302  00F8               	movwf	??_Proximity_Baseline_Initialize
  5348  0303  0875               	movf	?_MTOUCH_Sensor_RawSample_Get+1,w
  5349  0304  00F9               	movwf	??_Proximity_Baseline_Initialize+1
  5350  0305  01FA               	clrf	??_Proximity_Baseline_Initialize+2
  5351  0306  01FB               	clrf	??_Proximity_Baseline_Initialize+3
  5352  0307  087C               	movf	Proximity_Baseline_Initialize@prox,w
  5353  0308  3E07               	addlw	7
  5354  0309  0086               	movwf	6
  5355  030A  0187               	clrf	7
  5356  030B  0878               	movf	??_Proximity_Baseline_Initialize,w
  5357  030C  3FC0               	movwi [0]fsr1
  5358  030D  0879               	movf	??_Proximity_Baseline_Initialize+1,w
  5359  030E  3FC1               	movwi [1]fsr1
  5360  030F  087A               	movf	??_Proximity_Baseline_Initialize+2,w
  5361  0310  3FC2               	movwi [2]fsr1
  5362  0311  087B               	movf	??_Proximity_Baseline_Initialize+3,w
  5363  0312  3FC3               	movwi [3]fsr1
  5364                           
  5365                           ;mcc_generated_files/mtouch/mtouch_proximity.c: 433:     prox->baseline <<= (((uint8_t)4
      +                          u) + ((uint8_t)1u));
  5366  0313  087C               	movf	Proximity_Baseline_Initialize@prox,w
  5367  0314  3E07               	addlw	7
  5368  0315  0086               	movwf	6
  5369  0316  0187               	clrf	7
  5370  0317  3005               	movlw	5
  5371  0318                     u825:	
  5372  0318  3581               	lslf	1,f
  5373  0319  3141               	addfsr 1,1
  5374  031A  0D81               	rlf	1,f
  5375  031B  3141               	addfsr 1,1
  5376  031C  0D81               	rlf	1,f
  5377  031D  3141               	addfsr 1,1
  5378  031E  0D81               	rlf	1,f
  5379  031F  317D               	addfsr 1,-3
  5380  0320  0B89               	decfsz	9,f
  5381  0321  2B18               	goto	u825
  5382  0322  0008               	return
  5383  0323                     __end_of_Proximity_Baseline_Initialize:	
  5384                           
  5385                           	psect	text46
  5386  02D4                     __ptext46:	
  5387 ;; *************** function _MTOUCH_Proximity_Initialize *****************
  5388 ;; Defined at:
  5389 ;;		line 142 in file "mcc_generated_files/mtouch/mtouch_proximity.c"
  5390 ;; Parameters:    Size  Location     Type
  5391 ;;  name            1    wreg     enum E1553
  5392 ;; Auto vars:     Size  Location     Type
  5393 ;;  name            1    1[COMMON] enum E1553
  5394 ;;  prox            1    2[COMMON] PTR struct .
  5395 ;;		 -> mtouch_proximity(18), 
  5396 ;; Return value:  Size  Location     Type
  5397 ;;                  1    wreg      void 
  5398 ;; Registers used:
  5399 ;;		wreg, fsr1l, fsr1h, status,2, status,0
  5400 ;; Tracked objects:
  5401 ;;		On entry : 0/1
  5402 ;;		On exit  : 0/0
  5403 ;;		Unchanged: 0/0
  5404 ;; Data sizes:     COMMON   BANK0   BANK1   BANK2
  5405 ;;      Params:         0       0       0       0
  5406 ;;      Locals:         2       0       0       0
  5407 ;;      Temps:          1       0       0       0
  5408 ;;      Totals:         3       0       0       0
  5409 ;;Total ram usage:        3 bytes
  5410 ;; Hardware stack levels used:    1
  5411 ;; This function calls:
  5412 ;;		Nothing
  5413 ;; This function is called by:
  5414 ;;		_MTOUCH_Proximity_InitializeAll
  5415 ;;		_Proximity_Service
  5416 ;;		_Proximity_State_NotActivated
  5417 ;;		_Proximity_State_Activated
  5418 ;; This function uses a non-reentrant model
  5419 ;;
  5420                           
  5421                           
  5422                           ;psect for function _MTOUCH_Proximity_Initialize
  5423  02D4                     _MTOUCH_Proximity_Initialize:	
  5424                           
  5425                           ;incstack = 0
  5426                           ; Regs used in _MTOUCH_Proximity_Initialize: [wreg+fsr1l+fsr1h+status,2+status,0]
  5427                           ;MTOUCH_Proximity_Initialize@name stored from wreg
  5428  02D4  00F1               	movwf	MTOUCH_Proximity_Initialize@name
  5429                           
  5430                           ;mcc_generated_files/mtouch/mtouch_proximity.c: 142: void MTOUCH_Proximity_Initialize(en
      +                          um mtouch_proximity_names name);mcc_generated_files/mtouch/mtouch_proximity.c: 143: {;mc
      +                          c_generated_files/mtouch/mtouch_proximity.c: 144:     mtouch_proximity_t* prox = &mtouch
      +                          _proximity[name];
  5431  02D5  0E71               	swapf	MTOUCH_Proximity_Initialize@name,w
  5432  02D6  39F0               	andlw	240
  5433  02D7  0771               	addwf	MTOUCH_Proximity_Initialize@name,w
  5434  02D8  0771               	addwf	MTOUCH_Proximity_Initialize@name,w
  5435  02D9  3E29               	addlw	(low (_mtouch_proximity| 0))& (0+255)
  5436  02DA  00F0               	movwf	??_MTOUCH_Proximity_Initialize
  5437  02DB  0870               	movf	??_MTOUCH_Proximity_Initialize,w
  5438  02DC  00F2               	movwf	MTOUCH_Proximity_Initialize@prox
  5439                           
  5440                           ;mcc_generated_files/mtouch/mtouch_proximity.c: 146:     prox->state = MTOUCH_PROXIMITY_
      +                          STATE_initializing;
  5441  02DD  0872               	movf	MTOUCH_Proximity_Initialize@prox,w
  5442  02DE  3E02               	addlw	2
  5443  02DF  0086               	movwf	6
  5444  02E0  0187               	clrf	7
  5445  02E1  0181               	clrf	1
  5446                           
  5447                           ;mcc_generated_files/mtouch/mtouch_proximity.c: 147:     prox->baseline = (mtouch_prox_b
      +                          aseline_t)0;
  5448  02E2  0872               	movf	MTOUCH_Proximity_Initialize@prox,w
  5449  02E3  3E07               	addlw	7
  5450  02E4  0086               	movwf	6
  5451  02E5  0187               	clrf	7
  5452  02E6  3000               	movlw	0
  5453  02E7  3FC0               	movwi [0]fsr1
  5454  02E8  3000               	movlw	0
  5455  02E9  3FC1               	movwi [1]fsr1
  5456  02EA  3FC2               	movwi [2]fsr1
  5457  02EB  3FC3               	movwi [3]fsr1
  5458                           
  5459                           ;mcc_generated_files/mtouch/mtouch_proximity.c: 148:     prox->counter = (mtouch_prox_st
      +                          atecounter_t)0;
  5460  02EC  0872               	movf	MTOUCH_Proximity_Initialize@prox,w
  5461  02ED  3E0C               	addlw	12
  5462  02EE  0086               	movwf	6
  5463  02EF  0187               	clrf	7
  5464  02F0  3000               	movlw	0
  5465  02F1  3FC0               	movwi [0]fsr1
  5466  02F2  3FC1               	movwi [1]fsr1
  5467                           
  5468                           ;mcc_generated_files/mtouch/mtouch_proximity.c: 149:     prox->baseline_count = (mtouch_
      +                          prox_baselinecounter_t)0;
  5469  02F3  0872               	movf	MTOUCH_Proximity_Initialize@prox,w
  5470  02F4  3E0E               	addlw	14
  5471  02F5  0086               	movwf	6
  5472  02F6  0187               	clrf	7
  5473  02F7  3000               	movlw	0
  5474  02F8  3FC0               	movwi [0]fsr1
  5475  02F9  3FC1               	movwi [1]fsr1
  5476  02FA  0008               	return
  5477  02FB                     __end_of_MTOUCH_Proximity_Initialize:	
  5478                           
  5479                           	psect	text47
  5480  00A1                     __ptext47:	
  5481 ;; *************** function _Proximity_Reading_Update *****************
  5482 ;; Defined at:
  5483 ;;		line 404 in file "mcc_generated_files/mtouch/mtouch_proximity.c"
  5484 ;; Parameters:    Size  Location     Type
  5485 ;;  prox            1    wreg     PTR struct .
  5486 ;;		 -> mtouch_proximity(18), 
  5487 ;; Auto vars:     Size  Location     Type
  5488 ;;  prox            1    1[BANK0 ] PTR struct .
  5489 ;;		 -> mtouch_proximity(18), 
  5490 ;; Return value:  Size  Location     Type
  5491 ;;                  1    wreg      void 
  5492 ;; Registers used:
  5493 ;;		wreg, fsr1l, fsr1h, status,2, status,0, pclath, cstack
  5494 ;; Tracked objects:
  5495 ;;		On entry : 1F/0
  5496 ;;		On exit  : 1F/0
  5497 ;;		Unchanged: 0/0
  5498 ;; Data sizes:     COMMON   BANK0   BANK1   BANK2
  5499 ;;      Params:         0       0       0       0
  5500 ;;      Locals:         0       1       0       0
  5501 ;;      Temps:          0       0       0       0
  5502 ;;      Totals:         0       1       0       0
  5503 ;;Total ram usage:        1 bytes
  5504 ;; Hardware stack levels used:    1
  5505 ;; Hardware stack levels required when called:    3
  5506 ;; This function calls:
  5507 ;;		_Proximity_Reading_Update_Helper
  5508 ;; This function is called by:
  5509 ;;		_Proximity_Service
  5510 ;; This function uses a non-reentrant model
  5511 ;;
  5512                           
  5513                           
  5514                           ;psect for function _Proximity_Reading_Update
  5515  00A1                     _Proximity_Reading_Update:	
  5516                           
  5517                           ;incstack = 0
  5518                           ; Regs used in _Proximity_Reading_Update: [wreg+fsr1l+fsr1h+status,2+status,0+pclath+cst
      +                          ack]
  5519                           ;Proximity_Reading_Update@prox stored from wreg
  5520  00A1  00D5               	movwf	Proximity_Reading_Update@prox
  5521                           
  5522                           ;mcc_generated_files/mtouch/mtouch_proximity.c: 404: static void Proximity_Reading_Updat
      +                          e(mtouch_proximity_t* prox);mcc_generated_files/mtouch/mtouch_proximity.c: 405: {;mcc_ge
      +                          nerated_files/mtouch/mtouch_proximity.c: 406:     if (GIE == (uint8_t)1)
  5523  00A2  1F8B               	btfss	11,7	;volatile
  5524  00A3  28A9               	goto	l2097
  5525                           
  5526                           ;mcc_generated_files/mtouch/mtouch_proximity.c: 407:     {;mcc_generated_files/mtouch/mt
      +                          ouch_proximity.c: 408:         GIE = (uint8_t)0;
  5527  00A4  138B               	bcf	11,7	;volatile
  5528                           
  5529                           ;mcc_generated_files/mtouch/mtouch_proximity.c: 409:         Proximity_Reading_Update_He
      +                          lper(prox);
  5530  00A5  0855               	movf	Proximity_Reading_Update@prox,w
  5531  00A6  24C5               	fcall	_Proximity_Reading_Update_Helper
  5532                           
  5533                           ;mcc_generated_files/mtouch/mtouch_proximity.c: 410:         GIE = (uint8_t)1;
  5534  00A7  178B               	bsf	11,7	;volatile
  5535                           
  5536                           ;mcc_generated_files/mtouch/mtouch_proximity.c: 411:     }
  5537  00A8  0008               	return
  5538  00A9                     l2097:	
  5539                           
  5540                           ;mcc_generated_files/mtouch/mtouch_proximity.c: 413:     {;mcc_generated_files/mtouch/mt
      +                          ouch_proximity.c: 414:         Proximity_Reading_Update_Helper(prox);
  5541  00A9  0855               	movf	Proximity_Reading_Update@prox,w
  5542  00AA  24C5               	fcall	_Proximity_Reading_Update_Helper
  5543  00AB  0008               	return
  5544  00AC                     __end_of_Proximity_Reading_Update:	
  5545                           
  5546                           	psect	text48
  5547  04C5                     __ptext48:	
  5548 ;; *************** function _Proximity_Reading_Update_Helper *****************
  5549 ;; Defined at:
  5550 ;;		line 417 in file "mcc_generated_files/mtouch/mtouch_proximity.c"
  5551 ;; Parameters:    Size  Location     Type
  5552 ;;  prox            1    wreg     PTR struct .
  5553 ;;		 -> mtouch_proximity(18), 
  5554 ;; Auto vars:     Size  Location     Type
  5555 ;;  prox            1    0[BANK0 ] PTR struct .
  5556 ;;		 -> mtouch_proximity(18), 
  5557 ;; Return value:  Size  Location     Type
  5558 ;;                  1    wreg      void 
  5559 ;; Registers used:
  5560 ;;		wreg, fsr1l, fsr1h, status,2, status,0, pclath, cstack
  5561 ;; Tracked objects:
  5562 ;;		On entry : 1F/0
  5563 ;;		On exit  : 1F/0
  5564 ;;		Unchanged: 0/0
  5565 ;; Data sizes:     COMMON   BANK0   BANK1   BANK2
  5566 ;;      Params:         0       0       0       0
  5567 ;;      Locals:         0       1       0       0
  5568 ;;      Temps:          6       0       0       0
  5569 ;;      Totals:         6       1       0       0
  5570 ;;Total ram usage:        7 bytes
  5571 ;; Hardware stack levels used:    1
  5572 ;; Hardware stack levels required when called:    2
  5573 ;; This function calls:
  5574 ;;		_MTOUCH_Sensor_RawSample_Get
  5575 ;; This function is called by:
  5576 ;;		_Proximity_Reading_Update
  5577 ;; This function uses a non-reentrant model
  5578 ;;
  5579                           
  5580                           
  5581                           ;psect for function _Proximity_Reading_Update_Helper
  5582  04C5                     _Proximity_Reading_Update_Helper:	
  5583                           
  5584                           ;incstack = 0
  5585                           ; Regs used in _Proximity_Reading_Update_Helper: [wreg+fsr1l+fsr1h+status,2+status,0+pcl
      +                          ath+cstack]
  5586                           ;Proximity_Reading_Update_Helper@prox stored from wreg
  5587  04C5  00D4               	movwf	Proximity_Reading_Update_Helper@prox
  5588                           
  5589                           ;mcc_generated_files/mtouch/mtouch_proximity.c: 417: static void Proximity_Reading_Updat
      +                          e_Helper (mtouch_proximity_t* prox);mcc_generated_files/mtouch/mtouch_proximity.c: 418: 
      +                          {;mcc_generated_files/mtouch/mtouch_proximity.c: 419:     if(prox->state != MTOUCH_PROXI
      +                          MITY_STATE_initializing)
  5590  04C6  0854               	movf	Proximity_Reading_Update_Helper@prox,w
  5591  04C7  3E02               	addlw	2
  5592  04C8  0086               	movwf	6
  5593  04C9  0187               	clrf	7
  5594  04CA  0801               	movf	1,w
  5595  04CB  1903               	btfsc	3,2
  5596  04CC  2D0C               	goto	l1997
  5597                           
  5598                           ;mcc_generated_files/mtouch/mtouch_proximity.c: 420:     {;mcc_generated_files/mtouch/mt
      +                          ouch_proximity.c: 421:         prox->reading -= prox->reading>>((uint8_t)1u);
  5599  04CD  0854               	movf	Proximity_Reading_Update_Helper@prox,w
  5600  04CE  3E03               	addlw	3
  5601  04CF  0086               	movwf	6
  5602  04D0  0187               	clrf	7
  5603  04D1  3F40               	moviw [0]fsr1
  5604  04D2  00F8               	movwf	??_Proximity_Reading_Update_Helper
  5605  04D3  3F41               	moviw [1]fsr1
  5606  04D4  00F9               	movwf	??_Proximity_Reading_Update_Helper+1
  5607  04D5  3F42               	moviw [2]fsr1
  5608  04D6  00FA               	movwf	??_Proximity_Reading_Update_Helper+2
  5609  04D7  3F43               	moviw [3]fsr1
  5610  04D8  00FB               	movwf	??_Proximity_Reading_Update_Helper+3
  5611  04D9  3001               	movlw	1
  5612  04DA                     u895:	
  5613  04DA  36FB               	lsrf	??_Proximity_Reading_Update_Helper+3,f
  5614  04DB  0CFA               	rrf	??_Proximity_Reading_Update_Helper+2,f
  5615  04DC  0CF9               	rrf	??_Proximity_Reading_Update_Helper+1,f
  5616  04DD  0CF8               	rrf	??_Proximity_Reading_Update_Helper,f
  5617  04DE  0B89               	decfsz	9,f
  5618  04DF  2CDA               	goto	u895
  5619  04E0  0854               	movf	Proximity_Reading_Update_Helper@prox,w
  5620  04E1  3E03               	addlw	3
  5621  04E2  0086               	movwf	6
  5622  04E3  0187               	clrf	7
  5623  04E4  0878               	movf	??_Proximity_Reading_Update_Helper,w
  5624  04E5  0281               	subwf	1,f
  5625  04E6  3141               	addfsr 1,1
  5626  04E7  0879               	movf	??_Proximity_Reading_Update_Helper+1,w
  5627  04E8  3B81               	subwfb	1,f
  5628  04E9  3141               	addfsr 1,1
  5629  04EA  087A               	movf	??_Proximity_Reading_Update_Helper+2,w
  5630  04EB  3B81               	subwfb	1,f
  5631  04EC  3141               	addfsr 1,1
  5632  04ED  087B               	movf	??_Proximity_Reading_Update_Helper+3,w
  5633  04EE  3B81               	subwfb	1,f
  5634  04EF  317D               	addfsr 1,-3
  5635                           
  5636                           ;mcc_generated_files/mtouch/mtouch_proximity.c: 422:         prox->reading += MTOUCH_Sen
      +                          sor_RawSample_Get(prox->sensor);
  5637  04F0  0A54               	incf	Proximity_Reading_Update_Helper@prox,w
  5638  04F1  0086               	movwf	6
  5639  04F2  0187               	clrf	7
  5640  04F3  0801               	movf	1,w
  5641  04F4  21B6               	fcall	_MTOUCH_Sensor_RawSample_Get
  5642  04F5  0874               	movf	?_MTOUCH_Sensor_RawSample_Get,w
  5643  04F6  00F8               	movwf	??_Proximity_Reading_Update_Helper
  5644  04F7  0875               	movf	?_MTOUCH_Sensor_RawSample_Get+1,w
  5645  04F8  00F9               	movwf	??_Proximity_Reading_Update_Helper+1
  5646  04F9  01FA               	clrf	??_Proximity_Reading_Update_Helper+2
  5647  04FA  01FB               	clrf	??_Proximity_Reading_Update_Helper+3
  5648  04FB  0020               	movlb	0	; select bank0
  5649  04FC  0854               	movf	Proximity_Reading_Update_Helper@prox,w
  5650  04FD  3E03               	addlw	3
  5651  04FE  0086               	movwf	6
  5652  04FF  0187               	clrf	7
  5653  0500  0878               	movf	??_Proximity_Reading_Update_Helper,w
  5654  0501  0781               	addwf	1,f
  5655  0502  3141               	addfsr 1,1
  5656  0503  0879               	movf	??_Proximity_Reading_Update_Helper+1,w
  5657  0504  3D81               	addwfc	1,f
  5658  0505  3141               	addfsr 1,1
  5659  0506  087A               	movf	??_Proximity_Reading_Update_Helper+2,w
  5660  0507  3D81               	addwfc	1,f
  5661  0508  3141               	addfsr 1,1
  5662  0509  087B               	movf	??_Proximity_Reading_Update_Helper+3,w
  5663  050A  3D81               	addwfc	1,f
  5664                           
  5665                           ;mcc_generated_files/mtouch/mtouch_proximity.c: 423:     }
  5666  050B  0008               	return
  5667  050C                     l1997:	
  5668                           
  5669                           ;mcc_generated_files/mtouch/mtouch_proximity.c: 425:     {;mcc_generated_files/mtouch/mt
      +                          ouch_proximity.c: 426:         prox->reading = MTOUCH_Sensor_RawSample_Get(prox->sensor)
      +                           << ((uint8_t)1u);
  5670  050C  0A54               	incf	Proximity_Reading_Update_Helper@prox,w
  5671  050D  0086               	movwf	6
  5672  050E  0187               	clrf	7
  5673  050F  0801               	movf	1,w
  5674  0510  21B6               	fcall	_MTOUCH_Sensor_RawSample_Get
  5675  0511  0874               	movf	?_MTOUCH_Sensor_RawSample_Get,w
  5676  0512  00F8               	movwf	??_Proximity_Reading_Update_Helper
  5677  0513  0875               	movf	?_MTOUCH_Sensor_RawSample_Get+1,w
  5678  0514  00F9               	movwf	??_Proximity_Reading_Update_Helper+1
  5679  0515  35F8               	lslf	??_Proximity_Reading_Update_Helper,f
  5680  0516  0DF9               	rlf	??_Proximity_Reading_Update_Helper+1,f
  5681  0517  0878               	movf	??_Proximity_Reading_Update_Helper,w
  5682  0518  00FA               	movwf	??_Proximity_Reading_Update_Helper+2
  5683  0519  0879               	movf	??_Proximity_Reading_Update_Helper+1,w
  5684  051A  00FB               	movwf	??_Proximity_Reading_Update_Helper+3
  5685  051B  01FC               	clrf	??_Proximity_Reading_Update_Helper+4
  5686  051C  01FD               	clrf	??_Proximity_Reading_Update_Helper+5
  5687  051D  0020               	movlb	0	; select bank0
  5688  051E  0854               	movf	Proximity_Reading_Update_Helper@prox,w
  5689  051F  3E03               	addlw	3
  5690  0520  0086               	movwf	6
  5691  0521  0187               	clrf	7
  5692  0522  087A               	movf	??_Proximity_Reading_Update_Helper+2,w
  5693  0523  3FC0               	movwi [0]fsr1
  5694  0524  087B               	movf	??_Proximity_Reading_Update_Helper+3,w
  5695  0525  3FC1               	movwi [1]fsr1
  5696  0526  087C               	movf	??_Proximity_Reading_Update_Helper+4,w
  5697  0527  3FC2               	movwi [2]fsr1
  5698  0528  087D               	movf	??_Proximity_Reading_Update_Helper+5,w
  5699  0529  3FC3               	movwi [3]fsr1
  5700  052A  0008               	return
  5701  052B                     __end_of_Proximity_Reading_Update_Helper:	
  5702                           
  5703                           	psect	text49
  5704  01B6                     __ptext49:	
  5705 ;; *************** function _MTOUCH_Sensor_RawSample_Get *****************
  5706 ;; Defined at:
  5707 ;;		line 417 in file "mcc_generated_files/mtouch/mtouch_sensor.c"
  5708 ;; Parameters:    Size  Location     Type
  5709 ;;  name            1    wreg     enum E1336
  5710 ;; Auto vars:     Size  Location     Type
  5711 ;;  name            1    7[COMMON] enum E1336
  5712 ;; Return value:  Size  Location     Type
  5713 ;;                  2    4[COMMON] unsigned short 
  5714 ;; Registers used:
  5715 ;;		wreg, fsr1l, fsr1h, status,2, status,0, pclath, cstack
  5716 ;; Tracked objects:
  5717 ;;		On entry : 1F/0
  5718 ;;		On exit  : 0/0
  5719 ;;		Unchanged: 0/0
  5720 ;; Data sizes:     COMMON   BANK0   BANK1   BANK2
  5721 ;;      Params:         2       0       0       0
  5722 ;;      Locals:         1       0       0       0
  5723 ;;      Temps:          1       0       0       0
  5724 ;;      Totals:         4       0       0       0
  5725 ;;Total ram usage:        4 bytes
  5726 ;; Hardware stack levels used:    1
  5727 ;; Hardware stack levels required when called:    1
  5728 ;; This function calls:
  5729 ;;		___bmul
  5730 ;; This function is called by:
  5731 ;;		_Proximity_Reading_Update_Helper
  5732 ;;		_Proximity_Baseline_Initialize
  5733 ;; This function uses a non-reentrant model
  5734 ;;
  5735                           
  5736                           
  5737                           ;psect for function _MTOUCH_Sensor_RawSample_Get
  5738  01B6                     _MTOUCH_Sensor_RawSample_Get:	
  5739                           
  5740                           ;incstack = 0
  5741                           ; Regs used in _MTOUCH_Sensor_RawSample_Get: [wreg+fsr1l+fsr1h+status,2+status,0+pclath+
      +                          cstack]
  5742                           ;MTOUCH_Sensor_RawSample_Get@name stored from wreg
  5743  01B6  00F7               	movwf	MTOUCH_Sensor_RawSample_Get@name
  5744  01B7  0877               	movf	MTOUCH_Sensor_RawSample_Get@name,w
  5745  01B8  1D03               	btfss	3,2
  5746  01B9  29C8               	goto	l1871
  5747  01BA  3009               	movlw	9
  5748  01BB  00F6               	movwf	??_MTOUCH_Sensor_RawSample_Get
  5749  01BC  0876               	movf	??_MTOUCH_Sensor_RawSample_Get,w
  5750  01BD  00F0               	movwf	___bmul@multiplicand
  5751  01BE  0877               	movf	MTOUCH_Sensor_RawSample_Get@name,w
  5752  01BF  2129               	fcall	___bmul
  5753  01C0  3E51               	addlw	(low ((_mtouch_sensor| 0+6)))& (0+255)
  5754  01C1  0086               	movwf	6
  5755  01C2  0187               	clrf	7
  5756  01C3  3F40               	moviw [0]fsr1
  5757  01C4  00F4               	movwf	?_MTOUCH_Sensor_RawSample_Get
  5758  01C5  3F41               	moviw [1]fsr1
  5759  01C6  00F5               	movwf	?_MTOUCH_Sensor_RawSample_Get+1
  5760  01C7  0008               	return
  5761  01C8                     l1871:	
  5762  01C8  01F4               	clrf	?_MTOUCH_Sensor_RawSample_Get
  5763  01C9  01F5               	clrf	?_MTOUCH_Sensor_RawSample_Get+1
  5764  01CA  0008               	return
  5765  01CB                     __end_of_MTOUCH_Sensor_RawSample_Get:	
  5766                           
  5767                           	psect	text50
  5768  06E9                     __ptext50:	
  5769 ;; *************** function _Proximity_Deviation_Update *****************
  5770 ;; Defined at:
  5771 ;;		line 353 in file "mcc_generated_files/mtouch/mtouch_proximity.c"
  5772 ;; Parameters:    Size  Location     Type
  5773 ;;  name            1    wreg     enum E1553
  5774 ;; Auto vars:     Size  Location     Type
  5775 ;;  name            1   15[BANK0 ] enum E1553
  5776 ;;  deviation       4   11[BANK0 ] long 
  5777 ;; Return value:  Size  Location     Type
  5778 ;;                  1    wreg      void 
  5779 ;; Registers used:
  5780 ;;		wreg, fsr1l, fsr1h, status,2, status,0, pclath, cstack
  5781 ;; Tracked objects:
  5782 ;;		On entry : 1F/0
  5783 ;;		On exit  : 1F/0
  5784 ;;		Unchanged: 0/0
  5785 ;; Data sizes:     COMMON   BANK0   BANK1   BANK2
  5786 ;;      Params:         0       0       0       0
  5787 ;;      Locals:         0       5       0       0
  5788 ;;      Temps:          0      10       0       0
  5789 ;;      Totals:         0      15       0       0
  5790 ;;Total ram usage:       15 bytes
  5791 ;; Hardware stack levels used:    1
  5792 ;; Hardware stack levels required when called:    2
  5793 ;; This function calls:
  5794 ;;		_MTOUCH_Proximity_Baseline_Get
  5795 ;;		_MTOUCH_Proximity_Reading_Get
  5796 ;; This function is called by:
  5797 ;;		_Proximity_Service
  5798 ;; This function uses a non-reentrant model
  5799 ;;
  5800                           
  5801                           
  5802                           ;psect for function _Proximity_Deviation_Update
  5803  06E9                     _Proximity_Deviation_Update:	
  5804                           
  5805                           ;incstack = 0
  5806                           ; Regs used in _Proximity_Deviation_Update: [wreg+fsr1l+fsr1h+status,2+status,0+pclath+c
      +                          stack]
  5807                           ;Proximity_Deviation_Update@name stored from wreg
  5808  06E9  00E3               	movwf	Proximity_Deviation_Update@name
  5809                           
  5810                           ;mcc_generated_files/mtouch/mtouch_proximity.c: 353: static void Proximity_Deviation_Upd
      +                          ate(enum mtouch_proximity_names name);mcc_generated_files/mtouch/mtouch_proximity.c: 354
      +                          : {;mcc_generated_files/mtouch/mtouch_proximity.c: 355:     int32_t deviation;;mcc_gener
      +                          ated_files/mtouch/mtouch_proximity.c: 356:     deviation = (int32_t)((uint32_t)(MTOUCH_P
      +                          roximity_Reading_Get(name)) - (uint32_t)(MTOUCH_Proximity_Baseline_Get(name)));
  5811  06EA  0863               	movf	Proximity_Deviation_Update@name,w
  5812  06EB  222A               	fcall	_MTOUCH_Proximity_Reading_Get
  5813  06EC  0870               	movf	?_MTOUCH_Proximity_Reading_Get,w
  5814  06ED  00D5               	movwf	??_Proximity_Deviation_Update
  5815  06EE  0871               	movf	?_MTOUCH_Proximity_Reading_Get+1,w
  5816  06EF  00D6               	movwf	??_Proximity_Deviation_Update+1
  5817  06F0  0872               	movf	?_MTOUCH_Proximity_Reading_Get+2,w
  5818  06F1  00D7               	movwf	??_Proximity_Deviation_Update+2
  5819  06F2  0873               	movf	?_MTOUCH_Proximity_Reading_Get+3,w
  5820  06F3  00D8               	movwf	??_Proximity_Deviation_Update+3
  5821  06F4  0863               	movf	Proximity_Deviation_Update@name,w
  5822  06F5  21F9               	fcall	_MTOUCH_Proximity_Baseline_Get
  5823  06F6  0879               	movf	?_MTOUCH_Proximity_Baseline_Get,w
  5824  06F7  02D5               	subwf	??_Proximity_Deviation_Update,f
  5825  06F8  087A               	movf	?_MTOUCH_Proximity_Baseline_Get+1,w
  5826  06F9  3BD6               	subwfb	??_Proximity_Deviation_Update+1,f
  5827  06FA  087B               	movf	?_MTOUCH_Proximity_Baseline_Get+2,w
  5828  06FB  3BD7               	subwfb	??_Proximity_Deviation_Update+2,f
  5829  06FC  087C               	movf	?_MTOUCH_Proximity_Baseline_Get+3,w
  5830  06FD  3BD8               	subwfb	??_Proximity_Deviation_Update+3,f
  5831  06FE  0858               	movf	??_Proximity_Deviation_Update+3,w
  5832  06FF  00E2               	movwf	Proximity_Deviation_Update@deviation+3
  5833  0700  0857               	movf	??_Proximity_Deviation_Update+2,w
  5834  0701  00E1               	movwf	Proximity_Deviation_Update@deviation+2
  5835  0702  0856               	movf	??_Proximity_Deviation_Update+1,w
  5836  0703  00E0               	movwf	Proximity_Deviation_Update@deviation+1
  5837  0704  0855               	movf	??_Proximity_Deviation_Update,w
  5838  0705  00DF               	movwf	Proximity_Deviation_Update@deviation
  5839                           
  5840                           ;mcc_generated_files/mtouch/mtouch_proximity.c: 358:     deviation = deviation >> (mtouc
      +                          h_proximity[name].scaling);
  5841  0706  085F               	movf	Proximity_Deviation_Update@deviation,w
  5842  0707  00D5               	movwf	??_Proximity_Deviation_Update
  5843  0708  0860               	movf	Proximity_Deviation_Update@deviation+1,w
  5844  0709  00D6               	movwf	??_Proximity_Deviation_Update+1
  5845  070A  0861               	movf	Proximity_Deviation_Update@deviation+2,w
  5846  070B  00D7               	movwf	??_Proximity_Deviation_Update+2
  5847  070C  0862               	movf	Proximity_Deviation_Update@deviation+3,w
  5848  070D  00D8               	movwf	??_Proximity_Deviation_Update+3
  5849  070E  0E63               	swapf	Proximity_Deviation_Update@name,w
  5850  070F  39F0               	andlw	240
  5851  0710  0763               	addwf	Proximity_Deviation_Update@name,w
  5852  0711  0763               	addwf	Proximity_Deviation_Update@name,w
  5853  0712  3E3A               	addlw	(low ((_mtouch_proximity| 0+17)))& (0+255)
  5854  0713  0086               	movwf	6
  5855  0714  0187               	clrf	7
  5856  0715  0A01               	incf	1,w
  5857  0716  2F1B               	goto	u980
  5858  0717                     u985:	
  5859  0717  37D8               	asrf	??_Proximity_Deviation_Update+3,f
  5860  0718  0CD7               	rrf	??_Proximity_Deviation_Update+2,f
  5861  0719  0CD6               	rrf	??_Proximity_Deviation_Update+1,f
  5862  071A  0CD5               	rrf	??_Proximity_Deviation_Update,f
  5863  071B                     u980:	
  5864  071B  0B89               	decfsz	9,f
  5865  071C  2F17               	goto	u985
  5866  071D  0858               	movf	??_Proximity_Deviation_Update+3,w
  5867  071E  00E2               	movwf	Proximity_Deviation_Update@deviation+3
  5868  071F  0857               	movf	??_Proximity_Deviation_Update+2,w
  5869  0720  00E1               	movwf	Proximity_Deviation_Update@deviation+2
  5870  0721  0856               	movf	??_Proximity_Deviation_Update+1,w
  5871  0722  00E0               	movwf	Proximity_Deviation_Update@deviation+1
  5872  0723  0855               	movf	??_Proximity_Deviation_Update,w
  5873  0724  00DF               	movwf	Proximity_Deviation_Update@deviation
  5874                           
  5875                           ;mcc_generated_files/mtouch/mtouch_proximity.c: 361:     if (deviation > ((0x7f)))
  5876  0725  1BE2               	btfsc	Proximity_Deviation_Update@deviation+3,7
  5877  0726  2F3C               	goto	l2107
  5878  0727  0862               	movf	Proximity_Deviation_Update@deviation+3,w
  5879  0728  1D03               	btfss	3,2
  5880  0729  2F34               	goto	l2105
  5881  072A  0861               	movf	Proximity_Deviation_Update@deviation+2,w
  5882  072B  1D03               	btfss	3,2
  5883  072C  2F34               	goto	l2105
  5884  072D  0860               	movf	Proximity_Deviation_Update@deviation+1,w
  5885  072E  1D03               	btfss	3,2
  5886  072F  2F34               	goto	l2105
  5887  0730  3080               	movlw	128
  5888  0731  025F               	subwf	Proximity_Deviation_Update@deviation,w
  5889  0732  1C03               	btfss	3,0
  5890  0733  2F3C               	goto	l2107
  5891  0734                     l2105:	
  5892                           
  5893                           ;mcc_generated_files/mtouch/mtouch_proximity.c: 362:     {;mcc_generated_files/mtouch/mt
      +                          ouch_proximity.c: 363:         deviation = ((0x7f));
  5894  0734  3000               	movlw	0
  5895  0735  00E2               	movwf	Proximity_Deviation_Update@deviation+3
  5896  0736  3000               	movlw	0
  5897  0737  00E1               	movwf	Proximity_Deviation_Update@deviation+2
  5898  0738  3000               	movlw	0
  5899  0739  00E0               	movwf	Proximity_Deviation_Update@deviation+1
  5900  073A  307F               	movlw	127
  5901  073B  00DF               	movwf	Proximity_Deviation_Update@deviation
  5902  073C                     l2107:	
  5903                           
  5904                           ;mcc_generated_files/mtouch/mtouch_proximity.c: 365:     if (deviation < ((-1-0x7f)))
  5905  073C  1FE2               	btfss	Proximity_Deviation_Update@deviation+3,7
  5906  073D  2F50               	goto	l2111
  5907  073E  3080               	movlw	128
  5908  073F  025F               	subwf	Proximity_Deviation_Update@deviation,w
  5909  0740  30FF               	movlw	255
  5910  0741  3B60               	subwfb	Proximity_Deviation_Update@deviation+1,w
  5911  0742  30FF               	movlw	255
  5912  0743  3B61               	subwfb	Proximity_Deviation_Update@deviation+2,w
  5913  0744  30FF               	movlw	255
  5914  0745  3B62               	subwfb	Proximity_Deviation_Update@deviation+3,w
  5915  0746  1803               	btfsc	3,0
  5916  0747  2F50               	goto	l2111
  5917                           
  5918                           ;mcc_generated_files/mtouch/mtouch_proximity.c: 366:     {;mcc_generated_files/mtouch/mt
      +                          ouch_proximity.c: 367:         deviation = ((-1-0x7f));
  5919  0748  30FF               	movlw	255
  5920  0749  00E2               	movwf	Proximity_Deviation_Update@deviation+3
  5921  074A  30FF               	movlw	255
  5922  074B  00E1               	movwf	Proximity_Deviation_Update@deviation+2
  5923  074C  30FF               	movlw	255
  5924  074D  00E0               	movwf	Proximity_Deviation_Update@deviation+1
  5925  074E  3080               	movlw	128
  5926  074F  00DF               	movwf	Proximity_Deviation_Update@deviation
  5927  0750                     l2111:	
  5928                           
  5929                           ;mcc_generated_files/mtouch/mtouch_proximity.c: 370:     if(deviation < 0)
  5930  0750  1FE2               	btfss	Proximity_Deviation_Update@deviation+3,7
  5931  0751  2F5B               	goto	l2115
  5932                           
  5933                           ;mcc_generated_files/mtouch/mtouch_proximity.c: 371:     {;mcc_generated_files/mtouch/mt
      +                          ouch_proximity.c: 372:         mtouch_proximity[name].integratedDeviation = 0;
  5934  0752  0E63               	swapf	Proximity_Deviation_Update@name,w
  5935  0753  39F0               	andlw	240
  5936  0754  0763               	addwf	Proximity_Deviation_Update@name,w
  5937  0755  0763               	addwf	Proximity_Deviation_Update@name,w
  5938  0756  3E34               	addlw	(low ((_mtouch_proximity| 0+11)))& (0+255)
  5939  0757  0086               	movwf	6
  5940  0758  0187               	clrf	7
  5941  0759  0181               	clrf	1
  5942                           
  5943                           ;mcc_generated_files/mtouch/mtouch_proximity.c: 373:     }
  5944  075A  0008               	return
  5945  075B                     l2115:	
  5946  075B  085F               	movf	Proximity_Deviation_Update@deviation,w
  5947  075C  3A80               	xorlw	128
  5948  075D  00D5               	movwf	??_Proximity_Deviation_Update
  5949  075E  0E63               	swapf	Proximity_Deviation_Update@name,w
  5950  075F  39F0               	andlw	240
  5951  0760  0763               	addwf	Proximity_Deviation_Update@name,w
  5952  0761  0763               	addwf	Proximity_Deviation_Update@name,w
  5953  0762  3E39               	addlw	(low ((_mtouch_proximity| 0+16)))& (0+255)
  5954  0763  0086               	movwf	6
  5955  0764  0187               	clrf	7
  5956  0765  0801               	movf	1,w
  5957  0766  00D6               	movwf	??_Proximity_Deviation_Update+1
  5958  0767  3003               	movlw	3
  5959  0768                     u1025:	
  5960  0768  1003               	clrc
  5961  0769  1BD6               	btfsc	??_Proximity_Deviation_Update+1,7
  5962  076A  1403               	setc
  5963  076B  0CD6               	rrf	??_Proximity_Deviation_Update+1,f
  5964  076C  0B89               	decfsz	9,f
  5965  076D  2F68               	goto	u1025
  5966  076E  0856               	movf	??_Proximity_Deviation_Update+1,w
  5967  076F  3A80               	xorlw	128
  5968  0770  02D5               	subwf	??_Proximity_Deviation_Update,f
  5969  0771  1803               	skipnc
  5970  0772  2F8B               	goto	l2121
  5971                           
  5972                           ;mcc_generated_files/mtouch/mtouch_proximity.c: 375:     {;mcc_generated_files/mtouch/mt
      +                          ouch_proximity.c: 377:         if(mtouch_proximity[name].integratedDeviation >0 )
  5973  0773  0E63               	swapf	Proximity_Deviation_Update@name,w
  5974  0774  39F0               	andlw	240
  5975  0775  0763               	addwf	Proximity_Deviation_Update@name,w
  5976  0776  0763               	addwf	Proximity_Deviation_Update@name,w
  5977  0777  3E34               	addlw	(low ((_mtouch_proximity| 0+11)))& (0+255)
  5978  0778  0086               	movwf	6
  5979  0779  0187               	clrf	7
  5980  077A  0801               	movf	1,w
  5981  077B  3A80               	xorlw	128
  5982  077C  3E7F               	addlw	-129
  5983  077D  1C03               	skipc
  5984  077E  0008               	return
  5985                           
  5986                           ;mcc_generated_files/mtouch/mtouch_proximity.c: 378:             mtouch_proximity[name].
      +                          integratedDeviation--;
  5987  077F  30FF               	movlw	255
  5988  0780  00D5               	movwf	??_Proximity_Deviation_Update
  5989  0781  0E63               	swapf	Proximity_Deviation_Update@name,w
  5990  0782  39F0               	andlw	240
  5991  0783  0763               	addwf	Proximity_Deviation_Update@name,w
  5992  0784  0763               	addwf	Proximity_Deviation_Update@name,w
  5993  0785  3E34               	addlw	(low ((_mtouch_proximity| 0+11)))& (0+255)
  5994  0786  0086               	movwf	6
  5995  0787  0187               	clrf	7
  5996  0788  0855               	movf	??_Proximity_Deviation_Update,w
  5997  0789  0781               	addwf	1,f
  5998  078A  0008               	return
  5999  078B                     l2121:	
  6000                           
  6001                           ;mcc_generated_files/mtouch/mtouch_proximity.c: 381:     {;mcc_generated_files/mtouch/mt
      +                          ouch_proximity.c: 382:         mtouch_proximity[name].integratedDeviation -= mtouch_prox
      +                          imity[name].integratedDeviation >> ((uint8_t)2u);;
  6002  078B  0E63               	swapf	Proximity_Deviation_Update@name,w
  6003  078C  39F0               	andlw	240
  6004  078D  0763               	addwf	Proximity_Deviation_Update@name,w
  6005  078E  0763               	addwf	Proximity_Deviation_Update@name,w
  6006  078F  3E34               	addlw	(low ((_mtouch_proximity| 0+11)))& (0+255)
  6007  0790  0086               	movwf	6
  6008  0791  0187               	clrf	7
  6009  0792  0801               	movf	1,w
  6010  0793  00D5               	movwf	??_Proximity_Deviation_Update
  6011  0794  3002               	movlw	2
  6012  0795                     u1055:	
  6013  0795  1003               	clrc
  6014  0796  1BD5               	btfsc	??_Proximity_Deviation_Update,7
  6015  0797  1403               	setc
  6016  0798  0CD5               	rrf	??_Proximity_Deviation_Update,f
  6017  0799  0B89               	decfsz	9,f
  6018  079A  2F95               	goto	u1055
  6019  079B  0E63               	swapf	Proximity_Deviation_Update@name,w
  6020  079C  39F0               	andlw	240
  6021  079D  0763               	addwf	Proximity_Deviation_Update@name,w
  6022  079E  0763               	addwf	Proximity_Deviation_Update@name,w
  6023  079F  3E34               	addlw	(low ((_mtouch_proximity| 0+11)))& (0+255)
  6024  07A0  0086               	movwf	6
  6025  07A1  0187               	clrf	7
  6026  07A2  0855               	movf	??_Proximity_Deviation_Update,w
  6027  07A3  0281               	subwf	1,f
  6028                           
  6029                           ;mcc_generated_files/mtouch/mtouch_proximity.c: 383:         if(((0x7f)) - mtouch_proxim
      +                          ity[name].integratedDeviation > deviation)
  6030  07A4  0E63               	swapf	Proximity_Deviation_Update@name,w
  6031  07A5  39F0               	andlw	240
  6032  07A6  0763               	addwf	Proximity_Deviation_Update@name,w
  6033  07A7  0763               	addwf	Proximity_Deviation_Update@name,w
  6034  07A8  3E34               	addlw	(low ((_mtouch_proximity| 0+11)))& (0+255)
  6035  07A9  0086               	movwf	6
  6036  07AA  0187               	clrf	7
  6037  07AB  0801               	movf	1,w
  6038  07AC  00D5               	movwf	??_Proximity_Deviation_Update
  6039  07AD  01D6               	clrf	??_Proximity_Deviation_Update+1
  6040  07AE  1BD5               	btfsc	??_Proximity_Deviation_Update,7
  6041  07AF  03D6               	decf	??_Proximity_Deviation_Update+1,f
  6042  07B0  307F               	movlw	127
  6043  07B1  00D7               	movwf	??_Proximity_Deviation_Update+2
  6044  07B2  0855               	movf	??_Proximity_Deviation_Update,w
  6045  07B3  0257               	subwf	??_Proximity_Deviation_Update+2,w
  6046  07B4  00D8               	movwf	??_Proximity_Deviation_Update+3
  6047  07B5  0956               	comf	??_Proximity_Deviation_Update+1,w
  6048  07B6  1803               	skipnc
  6049  07B7  0A89               	incf	9,f
  6050  07B8  00D9               	movwf	??_Proximity_Deviation_Update+4
  6051  07B9  0858               	movf	??_Proximity_Deviation_Update+3,w
  6052  07BA  00DA               	movwf	??_Proximity_Deviation_Update+5
  6053  07BB  0859               	movf	??_Proximity_Deviation_Update+4,w
  6054  07BC  00DB               	movwf	??_Proximity_Deviation_Update+6
  6055  07BD  3000               	movlw	0
  6056  07BE  1BDB               	btfsc	??_Proximity_Deviation_Update+6,7
  6057  07BF  30FF               	movlw	255
  6058  07C0  00DC               	movwf	??_Proximity_Deviation_Update+7
  6059  07C1  00DD               	movwf	??_Proximity_Deviation_Update+8
  6060  07C2  0862               	movf	Proximity_Deviation_Update@deviation+3,w
  6061  07C3  3A80               	xorlw	128
  6062  07C4  00DE               	movwf	??_Proximity_Deviation_Update+9
  6063  07C5  085D               	movf	??_Proximity_Deviation_Update+8,w
  6064  07C6  3A80               	xorlw	128
  6065  07C7  025E               	subwf	??_Proximity_Deviation_Update+9,w
  6066  07C8  1D03               	skipz
  6067  07C9  2FD4               	goto	u1063
  6068  07CA  085C               	movf	??_Proximity_Deviation_Update+7,w
  6069  07CB  0261               	subwf	Proximity_Deviation_Update@deviation+2,w
  6070  07CC  1D03               	skipz
  6071  07CD  2FD4               	goto	u1063
  6072  07CE  085B               	movf	??_Proximity_Deviation_Update+6,w
  6073  07CF  0260               	subwf	Proximity_Deviation_Update@deviation+1,w
  6074  07D0  1D03               	skipz
  6075  07D1  2FD4               	goto	u1063
  6076  07D2  085A               	movf	??_Proximity_Deviation_Update+5,w
  6077  07D3  025F               	subwf	Proximity_Deviation_Update@deviation,w
  6078  07D4                     u1063:	
  6079  07D4  1803               	skipnc
  6080  07D5  2FE2               	goto	l2125
  6081                           
  6082                           ;mcc_generated_files/mtouch/mtouch_proximity.c: 384:             mtouch_proximity[name].
      +                          integratedDeviation += deviation;
  6083  07D6  085F               	movf	Proximity_Deviation_Update@deviation,w
  6084  07D7  00D5               	movwf	??_Proximity_Deviation_Update
  6085  07D8  0E63               	swapf	Proximity_Deviation_Update@name,w
  6086  07D9  39F0               	andlw	240
  6087  07DA  0763               	addwf	Proximity_Deviation_Update@name,w
  6088  07DB  0763               	addwf	Proximity_Deviation_Update@name,w
  6089  07DC  3E34               	addlw	(low ((_mtouch_proximity| 0+11)))& (0+255)
  6090  07DD  0086               	movwf	6
  6091  07DE  0187               	clrf	7
  6092  07DF  0855               	movf	??_Proximity_Deviation_Update,w
  6093  07E0  0781               	addwf	1,f
  6094  07E1  0008               	return
  6095  07E2                     l2125:	
  6096                           
  6097                           ;mcc_generated_files/mtouch/mtouch_proximity.c: 386:             mtouch_proximity[name].
      +                          integratedDeviation = ((0x7f));
  6098  07E2  307F               	movlw	127
  6099  07E3  00D5               	movwf	??_Proximity_Deviation_Update
  6100  07E4  0E63               	swapf	Proximity_Deviation_Update@name,w
  6101  07E5  39F0               	andlw	240
  6102  07E6  0763               	addwf	Proximity_Deviation_Update@name,w
  6103  07E7  0763               	addwf	Proximity_Deviation_Update@name,w
  6104  07E8  3E34               	addlw	(low ((_mtouch_proximity| 0+11)))& (0+255)
  6105  07E9  0086               	movwf	6
  6106  07EA  0187               	clrf	7
  6107  07EB  0855               	movf	??_Proximity_Deviation_Update,w
  6108  07EC  0081               	movwf	1
  6109  07ED  0008               	return
  6110  07EE                     __end_of_Proximity_Deviation_Update:	
  6111                           
  6112                           	psect	text51
  6113  022A                     __ptext51:	
  6114 ;; *************** function _MTOUCH_Proximity_Reading_Get *****************
  6115 ;; Defined at:
  6116 ;;		line 396 in file "mcc_generated_files/mtouch/mtouch_proximity.c"
  6117 ;; Parameters:    Size  Location     Type
  6118 ;;  name            1    wreg     enum E1553
  6119 ;; Auto vars:     Size  Location     Type
  6120 ;;  name            1    5[COMMON] enum E1553
  6121 ;; Return value:  Size  Location     Type
  6122 ;;                  4    0[COMMON] unsigned long 
  6123 ;; Registers used:
  6124 ;;		wreg, fsr1l, fsr1h, status,2, status,0
  6125 ;; Tracked objects:
  6126 ;;		On entry : 1F/0
  6127 ;;		On exit  : 1F/0
  6128 ;;		Unchanged: 1F/0
  6129 ;; Data sizes:     COMMON   BANK0   BANK1   BANK2
  6130 ;;      Params:         5       0       0       0
  6131 ;;      Locals:         1       0       0       0
  6132 ;;      Temps:          0       0       0       0
  6133 ;;      Totals:         6       0       0       0
  6134 ;;Total ram usage:        6 bytes
  6135 ;; Hardware stack levels used:    1
  6136 ;; This function calls:
  6137 ;;		Nothing
  6138 ;; This function is called by:
  6139 ;;		_Proximity_State_NotActivated
  6140 ;;		_Proximity_Deviation_Update
  6141 ;; This function uses a non-reentrant model
  6142 ;;
  6143                           
  6144                           
  6145                           ;psect for function _MTOUCH_Proximity_Reading_Get
  6146  022A                     _MTOUCH_Proximity_Reading_Get:	
  6147                           
  6148                           ;incstack = 0
  6149                           ; Regs used in _MTOUCH_Proximity_Reading_Get: [wreg+fsr1l+fsr1h+status,2+status,0]
  6150                           ;MTOUCH_Proximity_Reading_Get@name stored from wreg
  6151  022A  00F5               	movwf	MTOUCH_Proximity_Reading_Get@name
  6152                           
  6153                           ;mcc_generated_files/mtouch/mtouch_proximity.c: 396: mtouch_prox_reading_t MTOUCH_Proxim
      +                          ity_Reading_Get(enum mtouch_proximity_names name);mcc_generated_files/mtouch/mtouch_prox
      +                          imity.c: 397: {;mcc_generated_files/mtouch/mtouch_proximity.c: 398:     if (name < 1u)
  6154  022B  0875               	movf	MTOUCH_Proximity_Reading_Get@name,w
  6155  022C  1D03               	btfss	3,2
  6156  022D  2A3E               	goto	l1975
  6157                           
  6158                           ;mcc_generated_files/mtouch/mtouch_proximity.c: 399:         return mtouch_proximity[nam
      +                          e].reading;
  6159  022E  0E75               	swapf	MTOUCH_Proximity_Reading_Get@name,w
  6160  022F  39F0               	andlw	240
  6161  0230  0775               	addwf	MTOUCH_Proximity_Reading_Get@name,w
  6162  0231  0775               	addwf	MTOUCH_Proximity_Reading_Get@name,w
  6163  0232  3E2C               	addlw	(low ((_mtouch_proximity| 0+3)))& (0+255)
  6164  0233  0086               	movwf	6
  6165  0234  0187               	clrf	7
  6166  0235  3F40               	moviw [0]fsr1
  6167  0236  00F0               	movwf	?_MTOUCH_Proximity_Reading_Get
  6168  0237  3F41               	moviw [1]fsr1
  6169  0238  00F1               	movwf	?_MTOUCH_Proximity_Reading_Get+1
  6170  0239  3F42               	moviw [2]fsr1
  6171  023A  00F2               	movwf	?_MTOUCH_Proximity_Reading_Get+2
  6172  023B  3F43               	moviw [3]fsr1
  6173  023C  00F3               	movwf	?_MTOUCH_Proximity_Reading_Get+3
  6174  023D  0008               	return
  6175  023E                     l1975:	
  6176                           
  6177                           ;mcc_generated_files/mtouch/mtouch_proximity.c: 401:         return (mtouch_prox_reading
      +                          _t)0;
  6178  023E  3000               	movlw	0
  6179  023F  00F3               	movwf	?_MTOUCH_Proximity_Reading_Get+3
  6180  0240  3000               	movlw	0
  6181  0241  00F2               	movwf	?_MTOUCH_Proximity_Reading_Get+2
  6182  0242  3000               	movlw	0
  6183  0243  00F1               	movwf	?_MTOUCH_Proximity_Reading_Get+1
  6184  0244  3000               	movlw	0
  6185  0245  00F0               	movwf	?_MTOUCH_Proximity_Reading_Get
  6186  0246  0008               	return
  6187  0247                     __end_of_MTOUCH_Proximity_Reading_Get:	
  6188                           
  6189                           	psect	text52
  6190  01F9                     __ptext52:	
  6191 ;; *************** function _MTOUCH_Proximity_Baseline_Get *****************
  6192 ;; Defined at:
  6193 ;;		line 452 in file "mcc_generated_files/mtouch/mtouch_proximity.c"
  6194 ;; Parameters:    Size  Location     Type
  6195 ;;  name            1    wreg     enum E1553
  6196 ;; Auto vars:     Size  Location     Type
  6197 ;;  name            1    0[BANK0 ] enum E1553
  6198 ;; Return value:  Size  Location     Type
  6199 ;;                  4    9[COMMON] unsigned long 
  6200 ;; Registers used:
  6201 ;;		wreg, fsr1l, fsr1h, status,2, status,0, pclath, cstack
  6202 ;; Tracked objects:
  6203 ;;		On entry : 1F/0
  6204 ;;		On exit  : 1F/0
  6205 ;;		Unchanged: 0/0
  6206 ;; Data sizes:     COMMON   BANK0   BANK1   BANK2
  6207 ;;      Params:         5       0       0       0
  6208 ;;      Locals:         0       1       0       0
  6209 ;;      Temps:          0       0       0       0
  6210 ;;      Totals:         5       1       0       0
  6211 ;;Total ram usage:        6 bytes
  6212 ;; Hardware stack levels used:    1
  6213 ;; Hardware stack levels required when called:    1
  6214 ;; This function calls:
  6215 ;;		_Proximity_Baseline_Get_helper
  6216 ;; This function is called by:
  6217 ;;		_Proximity_State_NotActivated
  6218 ;;		_Proximity_Deviation_Update
  6219 ;; This function uses a non-reentrant model
  6220 ;;
  6221                           
  6222                           
  6223                           ;psect for function _MTOUCH_Proximity_Baseline_Get
  6224  01F9                     _MTOUCH_Proximity_Baseline_Get:	
  6225                           
  6226                           ;incstack = 0
  6227                           ; Regs used in _MTOUCH_Proximity_Baseline_Get: [wreg+fsr1l+fsr1h+status,2+status,0+pclat
      +                          h+cstack]
  6228                           ;MTOUCH_Proximity_Baseline_Get@name stored from wreg
  6229  01F9  00D4               	movwf	MTOUCH_Proximity_Baseline_Get@name
  6230                           
  6231                           ;mcc_generated_files/mtouch/mtouch_proximity.c: 452: mtouch_prox_reading_t MTOUCH_Proxim
      +                          ity_Baseline_Get(enum mtouch_proximity_names name);mcc_generated_files/mtouch/mtouch_pro
      +                          ximity.c: 453: {;mcc_generated_files/mtouch/mtouch_proximity.c: 454:     if (name < 1u)
  6232  01FA  0854               	movf	MTOUCH_Proximity_Baseline_Get@name,w
  6233  01FB  1D03               	btfss	3,2
  6234  01FC  2A08               	goto	l1987
  6235                           
  6236                           ;mcc_generated_files/mtouch/mtouch_proximity.c: 455:         return Proximity_Baseline_G
      +                          et_helper(name);
  6237  01FD  0854               	movf	MTOUCH_Proximity_Baseline_Get@name,w
  6238  01FE  2247               	fcall	_Proximity_Baseline_Get_helper
  6239  01FF  0873               	movf	?_Proximity_Baseline_Get_helper+3,w
  6240  0200  00FC               	movwf	?_MTOUCH_Proximity_Baseline_Get+3
  6241  0201  0872               	movf	?_Proximity_Baseline_Get_helper+2,w
  6242  0202  00FB               	movwf	?_MTOUCH_Proximity_Baseline_Get+2
  6243  0203  0871               	movf	?_Proximity_Baseline_Get_helper+1,w
  6244  0204  00FA               	movwf	?_MTOUCH_Proximity_Baseline_Get+1
  6245  0205  0870               	movf	?_Proximity_Baseline_Get_helper,w
  6246  0206  00F9               	movwf	?_MTOUCH_Proximity_Baseline_Get
  6247  0207  0008               	return
  6248  0208                     l1987:	
  6249                           
  6250                           ;mcc_generated_files/mtouch/mtouch_proximity.c: 457:         return (mtouch_prox_reading
      +                          _t)0;
  6251  0208  3000               	movlw	0
  6252  0209  00FC               	movwf	?_MTOUCH_Proximity_Baseline_Get+3
  6253  020A  3000               	movlw	0
  6254  020B  00FB               	movwf	?_MTOUCH_Proximity_Baseline_Get+2
  6255  020C  3000               	movlw	0
  6256  020D  00FA               	movwf	?_MTOUCH_Proximity_Baseline_Get+1
  6257  020E  3000               	movlw	0
  6258  020F  00F9               	movwf	?_MTOUCH_Proximity_Baseline_Get
  6259  0210  0008               	return
  6260  0211                     __end_of_MTOUCH_Proximity_Baseline_Get:	
  6261                           
  6262                           	psect	text53
  6263  0247                     __ptext53:	
  6264 ;; *************** function _Proximity_Baseline_Get_helper *****************
  6265 ;; Defined at:
  6266 ;;		line 461 in file "mcc_generated_files/mtouch/mtouch_proximity.c"
  6267 ;; Parameters:    Size  Location     Type
  6268 ;;  name            1    wreg     enum E1553
  6269 ;; Auto vars:     Size  Location     Type
  6270 ;;  name            1    8[COMMON] enum E1553
  6271 ;; Return value:  Size  Location     Type
  6272 ;;                  4    0[COMMON] unsigned long 
  6273 ;; Registers used:
  6274 ;;		wreg, fsr1l, fsr1h, status,2, status,0
  6275 ;; Tracked objects:
  6276 ;;		On entry : 1F/0
  6277 ;;		On exit  : 1F/0
  6278 ;;		Unchanged: 1F/0
  6279 ;; Data sizes:     COMMON   BANK0   BANK1   BANK2
  6280 ;;      Params:         4       0       0       0
  6281 ;;      Locals:         1       0       0       0
  6282 ;;      Temps:          4       0       0       0
  6283 ;;      Totals:         9       0       0       0
  6284 ;;Total ram usage:        9 bytes
  6285 ;; Hardware stack levels used:    1
  6286 ;; This function calls:
  6287 ;;		Nothing
  6288 ;; This function is called by:
  6289 ;;		_MTOUCH_Proximity_Baseline_Get
  6290 ;; This function uses a non-reentrant model
  6291 ;;
  6292                           
  6293                           
  6294                           ;psect for function _Proximity_Baseline_Get_helper
  6295  0247                     _Proximity_Baseline_Get_helper:	
  6296                           
  6297                           ;incstack = 0
  6298                           ; Regs used in _Proximity_Baseline_Get_helper: [wreg+fsr1l+fsr1h+status,2+status,0]
  6299                           ;Proximity_Baseline_Get_helper@name stored from wreg
  6300  0247  00F8               	movwf	Proximity_Baseline_Get_helper@name
  6301                           
  6302                           ;mcc_generated_files/mtouch/mtouch_proximity.c: 461: static mtouch_prox_reading_t Proxim
      +                          ity_Baseline_Get_helper(enum mtouch_proximity_names name);mcc_generated_files/mtouch/mto
      +                          uch_proximity.c: 462: {;mcc_generated_files/mtouch/mtouch_proximity.c: 463:     return (
      +                          mtouch_prox_reading_t)(mtouch_proximity[name].baseline >> ((uint8_t)4u));
  6303  0248  0E78               	swapf	Proximity_Baseline_Get_helper@name,w
  6304  0249  39F0               	andlw	240
  6305  024A  0778               	addwf	Proximity_Baseline_Get_helper@name,w
  6306  024B  0778               	addwf	Proximity_Baseline_Get_helper@name,w
  6307  024C  3E30               	addlw	(low ((_mtouch_proximity| 0+7)))& (0+255)
  6308  024D  0086               	movwf	6
  6309  024E  0187               	clrf	7
  6310  024F  3F40               	moviw [0]fsr1
  6311  0250  00F4               	movwf	??_Proximity_Baseline_Get_helper
  6312  0251  3F41               	moviw [1]fsr1
  6313  0252  00F5               	movwf	??_Proximity_Baseline_Get_helper+1
  6314  0253  3F42               	moviw [2]fsr1
  6315  0254  00F6               	movwf	??_Proximity_Baseline_Get_helper+2
  6316  0255  3F43               	moviw [3]fsr1
  6317  0256  00F7               	movwf	??_Proximity_Baseline_Get_helper+3
  6318  0257  3004               	movlw	4
  6319  0258                     u755:	
  6320  0258  36F7               	lsrf	??_Proximity_Baseline_Get_helper+3,f
  6321  0259  0CF6               	rrf	??_Proximity_Baseline_Get_helper+2,f
  6322  025A  0CF5               	rrf	??_Proximity_Baseline_Get_helper+1,f
  6323  025B  0CF4               	rrf	??_Proximity_Baseline_Get_helper,f
  6324  025C  0B89               	decfsz	9,f
  6325  025D  2A58               	goto	u755
  6326  025E  0877               	movf	??_Proximity_Baseline_Get_helper+3,w
  6327  025F  00F3               	movwf	?_Proximity_Baseline_Get_helper+3
  6328  0260  0876               	movf	??_Proximity_Baseline_Get_helper+2,w
  6329  0261  00F2               	movwf	?_Proximity_Baseline_Get_helper+2
  6330  0262  0875               	movf	??_Proximity_Baseline_Get_helper+1,w
  6331  0263  00F1               	movwf	?_Proximity_Baseline_Get_helper+1
  6332  0264  0874               	movf	??_Proximity_Baseline_Get_helper,w
  6333  0265  00F0               	movwf	?_Proximity_Baseline_Get_helper
  6334  0266  0008               	return
  6335  0267                     __end_of_Proximity_Baseline_Get_helper:	
  6336                           
  6337                           	psect	text54
  6338  015C                     __ptext54:	
  6339 ;; *************** function _MTOUCH_Sensor_wasSampled *****************
  6340 ;; Defined at:
  6341 ;;		line 553 in file "mcc_generated_files/mtouch/mtouch_sensor.c"
  6342 ;; Parameters:    Size  Location     Type
  6343 ;;  sensor          1    wreg     enum E1336
  6344 ;; Auto vars:     Size  Location     Type
  6345 ;;  sensor          1    5[COMMON] enum E1336
  6346 ;; Return value:  Size  Location     Type
  6347 ;;                  1    wreg      _Bool 
  6348 ;; Registers used:
  6349 ;;		wreg, fsr1l, fsr1h, status,2, status,0, pclath, cstack
  6350 ;; Tracked objects:
  6351 ;;		On entry : 1F/0
  6352 ;;		On exit  : 0/0
  6353 ;;		Unchanged: 0/0
  6354 ;; Data sizes:     COMMON   BANK0   BANK1   BANK2
  6355 ;;      Params:         0       0       0       0
  6356 ;;      Locals:         1       0       0       0
  6357 ;;      Temps:          1       0       0       0
  6358 ;;      Totals:         2       0       0       0
  6359 ;;Total ram usage:        2 bytes
  6360 ;; Hardware stack levels used:    1
  6361 ;; Hardware stack levels required when called:    1
  6362 ;; This function calls:
  6363 ;;		___bmul
  6364 ;; This function is called by:
  6365 ;;		_Proximity_Service
  6366 ;; This function uses a non-reentrant model
  6367 ;;
  6368                           
  6369                           
  6370                           ;psect for function _MTOUCH_Sensor_wasSampled
  6371  015C                     _MTOUCH_Sensor_wasSampled:	
  6372                           
  6373                           ;incstack = 0
  6374                           ; Regs used in _MTOUCH_Sensor_wasSampled: [wreg+fsr1l+fsr1h+status,2+status,0+pclath+cst
      +                          ack]
  6375                           ;MTOUCH_Sensor_wasSampled@sensor stored from wreg
  6376  015C  00F5               	movwf	MTOUCH_Sensor_wasSampled@sensor
  6377                           
  6378                           ;mcc_generated_files/mtouch/mtouch_sensor.c: 553: _Bool MTOUCH_Sensor_wasSampled(enum mt
      +                          ouch_sensor_names sensor);mcc_generated_files/mtouch/mtouch_sensor.c: 554: {;mcc_generat
      +                          ed_files/mtouch/mtouch_sensor.c: 555:     if(sensor < 1u)
  6379  015D  0875               	movf	MTOUCH_Sensor_wasSampled@sensor,w
  6380  015E  1D03               	btfss	3,2
  6381  015F  296C               	goto	l2073
  6382                           
  6383                           ;mcc_generated_files/mtouch/mtouch_sensor.c: 556:         return (_Bool)mtouch_sensor[se
      +                          nsor].sampled;
  6384  0160  3009               	movlw	9
  6385  0161  00F4               	movwf	??_MTOUCH_Sensor_wasSampled
  6386  0162  0874               	movf	??_MTOUCH_Sensor_wasSampled,w
  6387  0163  00F0               	movwf	___bmul@multiplicand
  6388  0164  0875               	movf	MTOUCH_Sensor_wasSampled@sensor,w
  6389  0165  2129               	fcall	___bmul
  6390  0166  3E53               	addlw	(low ((_mtouch_sensor| 0+8)))& (0+255)
  6391  0167  0086               	movwf	6
  6392  0168  0187               	clrf	7
  6393  0169  0C01               	rrf	1,w
  6394  016A  3901               	andlw	1
  6395  016B  0008               	return
  6396  016C                     l2073:	
  6397                           
  6398                           ;mcc_generated_files/mtouch/mtouch_sensor.c: 558:         return 0;
  6399  016C  3000               	movlw	0
  6400  016D  0008               	return
  6401  016E                     __end_of_MTOUCH_Sensor_wasSampled:	
  6402                           
  6403                           	psect	text55
  6404  0129                     __ptext55:	
  6405 ;; *************** function ___bmul *****************
  6406 ;; Defined at:
  6407 ;;		line 4 in file "C:\Program Files (x86)\Microchip\xc8\v2.10\pic\sources\c99\common\Umul8.c"
  6408 ;; Parameters:    Size  Location     Type
  6409 ;;  multiplier      1    wreg     unsigned char 
  6410 ;;  multiplicand    1    0[COMMON] unsigned char 
  6411 ;; Auto vars:     Size  Location     Type
  6412 ;;  multiplier      1    3[COMMON] unsigned char 
  6413 ;;  product         1    2[COMMON] unsigned char 
  6414 ;; Return value:  Size  Location     Type
  6415 ;;                  1    wreg      unsigned char 
  6416 ;; Registers used:
  6417 ;;		wreg, status,2, status,0
  6418 ;; Tracked objects:
  6419 ;;		On entry : 0/1
  6420 ;;		On exit  : 0/0
  6421 ;;		Unchanged: 0/0
  6422 ;; Data sizes:     COMMON   BANK0   BANK1   BANK2
  6423 ;;      Params:         1       0       0       0
  6424 ;;      Locals:         2       0       0       0
  6425 ;;      Temps:          1       0       0       0
  6426 ;;      Totals:         4       0       0       0
  6427 ;;Total ram usage:        4 bytes
  6428 ;; Hardware stack levels used:    1
  6429 ;; This function calls:
  6430 ;;		Nothing
  6431 ;; This function is called by:
  6432 ;;		_MTOUCH_Sensor_Initialize
  6433 ;;		_Sensor_Service
  6434 ;;		_Sensor_Acq_ExecuteScan
  6435 ;;		_MTOUCH_Sensor_RawSample_Get
  6436 ;;		_MTOUCH_Sensor_Enable
  6437 ;;		_MTOUCH_Sensor_wasSampled
  6438 ;; This function uses a non-reentrant model
  6439 ;;
  6440                           
  6441                           
  6442                           ;psect for function ___bmul
  6443  0129                     ___bmul:	
  6444                           
  6445                           ;incstack = 0
  6446                           ; Regs used in ___bmul: [wreg+status,2+status,0]
  6447                           ;___bmul@multiplier stored from wreg
  6448  0129  00F3               	movwf	___bmul@multiplier
  6449  012A  01F2               	clrf	___bmul@product
  6450  012B                     l1787:	
  6451  012B  1C73               	btfss	___bmul@multiplier,0
  6452  012C  2931               	goto	l1791
  6453  012D  0870               	movf	___bmul@multiplicand,w
  6454  012E  00F1               	movwf	??___bmul
  6455  012F  0871               	movf	??___bmul,w
  6456  0130  07F2               	addwf	___bmul@product,f
  6457  0131                     l1791:	
  6458  0131  1003               	clrc
  6459  0132  0DF0               	rlf	___bmul@multiplicand,f
  6460  0133  1003               	clrc
  6461  0134  0CF3               	rrf	___bmul@multiplier,f
  6462  0135  0873               	movf	___bmul@multiplier,w
  6463  0136  1D03               	btfss	3,2
  6464  0137  292B               	goto	l1787
  6465  0138  0872               	movf	___bmul@product,w
  6466  0139  0008               	return
  6467  013A                     __end_of___bmul:	
  6468                           
  6469                           	psect	text56
  6470  003E                     __ptext56:	
  6471 ;; *************** function _MTOUCH_Sensor_isCalibrated *****************
  6472 ;; Defined at:
  6473 ;;		line 526 in file "mcc_generated_files/mtouch/mtouch_sensor.c"
  6474 ;; Parameters:    Size  Location     Type
  6475 ;;  sensor          1    wreg     enum E1336
  6476 ;; Auto vars:     Size  Location     Type
  6477 ;;  sensor          1    0[COMMON] enum E1336
  6478 ;; Return value:  Size  Location     Type
  6479 ;;                  1    wreg      _Bool 
  6480 ;; Registers used:
  6481 ;;		wreg
  6482 ;; Tracked objects:
  6483 ;;		On entry : 1F/0
  6484 ;;		On exit  : 1F/0
  6485 ;;		Unchanged: 1F/0
  6486 ;; Data sizes:     COMMON   BANK0   BANK1   BANK2
  6487 ;;      Params:         0       0       0       0
  6488 ;;      Locals:         0       0       0       0
  6489 ;;      Temps:          0       0       0       0
  6490 ;;      Totals:         0       0       0       0
  6491 ;;Total ram usage:        0 bytes
  6492 ;; Hardware stack levels used:    1
  6493 ;; This function calls:
  6494 ;;		Nothing
  6495 ;; This function is called by:
  6496 ;;		_Proximity_Service
  6497 ;; This function uses a non-reentrant model
  6498 ;;
  6499                           
  6500                           
  6501                           ;psect for function _MTOUCH_Sensor_isCalibrated
  6502  003E                     _MTOUCH_Sensor_isCalibrated:	
  6503                           
  6504                           ;mcc_generated_files/mtouch/mtouch_sensor.c: 526: _Bool MTOUCH_Sensor_isCalibrated(enum 
      +                          mtouch_sensor_names sensor);mcc_generated_files/mtouch/mtouch_sensor.c: 527: {;mcc_gener
      +                          ated_files/mtouch/mtouch_sensor.c: 529:     return 1;
  6505                           
  6506                           ;incstack = 0
  6507                           ; Regs used in _MTOUCH_Sensor_isCalibrated: [wreg]
  6508  003E  3001               	movlw	1
  6509  003F  0008               	return
  6510  0040                     __end_of_MTOUCH_Sensor_isCalibrated:	
  6511                           
  6512                           	psect	text57
  6513  004E                     __ptext57:	
  6514 ;; *************** function _MTOUCH_Proximity_SetNotActivatedCallback *****************
  6515 ;; Defined at:
  6516 ;;		line 477 in file "mcc_generated_files/mtouch/mtouch_proximity.c"
  6517 ;; Parameters:    Size  Location     Type
  6518 ;;  callback        2    0[COMMON] PTR FTN(enum E1553,)void
  6519 ;;		 -> User_Proximity_Deactived_Callback(1), 
  6520 ;; Auto vars:     Size  Location     Type
  6521 ;;		None
  6522 ;; Return value:  Size  Location     Type
  6523 ;;                  1    wreg      void 
  6524 ;; Registers used:
  6525 ;;		wreg
  6526 ;; Tracked objects:
  6527 ;;		On entry : 1F/0
  6528 ;;		On exit  : 1F/0
  6529 ;;		Unchanged: 0/0
  6530 ;; Data sizes:     COMMON   BANK0   BANK1   BANK2
  6531 ;;      Params:         2       0       0       0
  6532 ;;      Locals:         0       0       0       0
  6533 ;;      Temps:          0       0       0       0
  6534 ;;      Totals:         2       0       0       0
  6535 ;;Total ram usage:        2 bytes
  6536 ;; Hardware stack levels used:    1
  6537 ;; This function calls:
  6538 ;;		Nothing
  6539 ;; This function is called by:
  6540 ;;		_main
  6541 ;; This function uses a non-reentrant model
  6542 ;;
  6543                           
  6544                           
  6545                           ;psect for function _MTOUCH_Proximity_SetNotActivatedCallback
  6546  004E                     _MTOUCH_Proximity_SetNotActivatedCallback:	
  6547                           
  6548                           ;mcc_generated_files/mtouch/mtouch_proximity.c: 477: void MTOUCH_Proximity_SetNotActivat
      +                          edCallback(void (*callback)(enum mtouch_proximity_names));mcc_generated_files/mtouch/mto
      +                          uch_proximity.c: 478: {;mcc_generated_files/mtouch/mtouch_proximity.c: 479:     callback
      +                          _notActivated = callback;
  6549                           
  6550                           ;incstack = 0
  6551                           ; Regs used in _MTOUCH_Proximity_SetNotActivatedCallback: [wreg]
  6552  004E  0871               	movf	MTOUCH_Proximity_SetNotActivatedCallback@callback+1,w
  6553  004F  00C2               	movwf	_callback_notActivated+1
  6554  0050  0870               	movf	MTOUCH_Proximity_SetNotActivatedCallback@callback,w
  6555  0051  00C1               	movwf	_callback_notActivated
  6556  0052  0008               	return
  6557  0053                     __end_of_MTOUCH_Proximity_SetNotActivatedCallback:	
  6558                           
  6559                           	psect	text58
  6560  0062                     __ptext58:	
  6561 ;; *************** function _MTOUCH_Proximity_SetActivatedCallback *****************
  6562 ;; Defined at:
  6563 ;;		line 473 in file "mcc_generated_files/mtouch/mtouch_proximity.c"
  6564 ;; Parameters:    Size  Location     Type
  6565 ;;  callback        2    0[COMMON] PTR FTN(enum E1553,)void
  6566 ;;		 -> User_Proximity_Actived_Callback(1), 
  6567 ;; Auto vars:     Size  Location     Type
  6568 ;;		None
  6569 ;; Return value:  Size  Location     Type
  6570 ;;                  1    wreg      void 
  6571 ;; Registers used:
  6572 ;;		wreg
  6573 ;; Tracked objects:
  6574 ;;		On entry : 1F/1
  6575 ;;		On exit  : 1F/0
  6576 ;;		Unchanged: 0/0
  6577 ;; Data sizes:     COMMON   BANK0   BANK1   BANK2
  6578 ;;      Params:         2       0       0       0
  6579 ;;      Locals:         0       0       0       0
  6580 ;;      Temps:          0       0       0       0
  6581 ;;      Totals:         2       0       0       0
  6582 ;;Total ram usage:        2 bytes
  6583 ;; Hardware stack levels used:    1
  6584 ;; This function calls:
  6585 ;;		Nothing
  6586 ;; This function is called by:
  6587 ;;		_main
  6588 ;; This function uses a non-reentrant model
  6589 ;;
  6590                           
  6591                           
  6592                           ;psect for function _MTOUCH_Proximity_SetActivatedCallback
  6593  0062                     _MTOUCH_Proximity_SetActivatedCallback:	
  6594                           
  6595                           ;mcc_generated_files/mtouch/mtouch_proximity.c: 473: void MTOUCH_Proximity_SetActivatedC
      +                          allback(void (*callback)(enum mtouch_proximity_names));mcc_generated_files/mtouch/mtouch
      +                          _proximity.c: 474: {;mcc_generated_files/mtouch/mtouch_proximity.c: 475:     callback_ac
      +                          tivated = callback;
  6596                           
  6597                           ;incstack = 0
  6598                           ; Regs used in _MTOUCH_Proximity_SetActivatedCallback: [wreg]
  6599  0062  0871               	movf	MTOUCH_Proximity_SetActivatedCallback@callback+1,w
  6600  0063  0020               	movlb	0	; select bank0
  6601  0064  00C4               	movwf	_callback_activated+1
  6602  0065  0870               	movf	MTOUCH_Proximity_SetActivatedCallback@callback,w
  6603  0066  00C3               	movwf	_callback_activated
  6604  0067  0008               	return
  6605  0068                     __end_of_MTOUCH_Proximity_SetActivatedCallback:	
  6606  007E                     btemp	set	126	;btemp
  6607  007E                     wtemp0	set	126


Data Sizes:
    Strings     0
    Constant    18
    Data        25
    BSS         27
    Persistent  32
    Stack       0

Auto Spaces:
    Space          Size  Autos    Used
    COMMON           14     14      14
    BANK0            80     20      72
    BANK1            80      0       0
    BANK2            80      0       0

Pointer List with Targets:

    Proximity_Service$1415$0	PTR struct . size(1) Largest target is 18
		 -> mtouch_proximity(BANK0[18]), 

    Proximity_Service$1415	PTR FTN(PTR struct .,)void  size(2) Largest target is 1
		 -> Proximity_State_Activated(), Proximity_State_NotActivated(), Proximity_State_Initializing(), 

    Proximity_StateMachine$0	PTR struct . size(1) Largest target is 18
		 -> mtouch_proximity(BANK0[18]), 

    memcpy@d1	PTR void  size(1) Largest target is 18
		 -> mtouch_proximity(BANK0[18]), 

    memcpy@d	PTR unsigned char  size(1) Largest target is 18
		 -> mtouch_proximity(BANK0[18]), 

    memcpy@s1	PTR const void  size(2) Largest target is 18
		 -> mtouch_proximity_init(CODE[18]), 

    memcpy@s	PTR const unsigned char  size(2) Largest target is 18
		 -> mtouch_proximity_init(CODE[18]), 

    MTOUCH_Proximity_SetNotActivatedCallback@callback	PTR FTN(enum E1553,)void  size(2) Largest target is 1
		 -> User_Proximity_Deactived_Callback(), 

    MTOUCH_Proximity_SetActivatedCallback@callback	PTR FTN(enum E1553,)void  size(2) Largest target is 1
		 -> User_Proximity_Actived_Callback(), 

    Proximity_Baseline_Update@prox	PTR struct . size(1) Largest target is 18
		 -> mtouch_proximity(BANK0[18]), 

    Proximity_Baseline_Initialize@prox	PTR struct . size(1) Largest target is 18
		 -> mtouch_proximity(BANK0[18]), 

    Proximity_Reading_Update_Helper@prox	PTR struct . size(1) Largest target is 18
		 -> mtouch_proximity(BANK0[18]), 

    Proximity_Reading_Update@prox	PTR struct . size(1) Largest target is 18
		 -> mtouch_proximity(BANK0[18]), 

    Proximity_Tick_helper@prox	PTR struct . size(1) Largest target is 18
		 -> mtouch_proximity(BANK0[18]), 

    Proximity_State_Activated@prox	PTR struct . size(1) Largest target is 18
		 -> mtouch_proximity(BANK0[18]), 

    Proximity_State_NotActivated@prox	PTR struct . size(1) Largest target is 18
		 -> mtouch_proximity(BANK0[18]), 

    Proximity_State_Initializing@prox	PTR struct . size(1) Largest target is 18
		 -> mtouch_proximity(BANK0[18]), 

    Proximity_Service@prox	PTR struct . size(1) Largest target is 18
		 -> mtouch_proximity(BANK0[18]), 

    sp__memcpy	PTR void  size(1) Largest target is 18
		 -> mtouch_proximity(BANK0[18]), 

    MTOUCH_Proximity_Initialize@prox	PTR struct . size(1) Largest target is 18
		 -> mtouch_proximity(BANK0[18]), 

    Proximity_StateMachine	PTR FTN(PTR struct .,)void [3] size(2) Largest target is 1
		 -> Proximity_State_Activated(), Proximity_State_NotActivated(), Proximity_State_Initializing(), 

    callback_notActivated	PTR FTN(enum E1553,)void  size(2) Largest target is 1
		 -> User_Proximity_Deactived_Callback(), Proximity_DefaultCallback(), 

    callback_activated	PTR FTN(enum E1553,)void  size(2) Largest target is 1
		 -> User_Proximity_Actived_Callback(), Proximity_DefaultCallback(), 

    Sensor_setSampled@sensor.scanB	const PTR FTN()void  size(2) Largest target is 1
		 -> MTOUCH_CVD_ScanB_0(), 

    Sensor_setSampled@sensor.scanA	const PTR FTN()void  size(2) Largest target is 1
		 -> MTOUCH_CVD_ScanA_0(), 

    Sensor_setSampled@sensor	PTR struct . size(1) Largest target is 9
		 -> mtouch_sensor(BANK0[9]), 

    Sensor_Sampled_Reset@sensor.scanB	const PTR FTN()void  size(2) Largest target is 1
		 -> MTOUCH_CVD_ScanB_0(), 

    Sensor_Sampled_Reset@sensor.scanA	const PTR FTN()void  size(2) Largest target is 1
		 -> MTOUCH_CVD_ScanA_0(), 

    Sensor_Sampled_Reset@sensor	PTR struct . size(1) Largest target is 9
		 -> mtouch_sensor(BANK0[9]), 

    MTOUCH_Sensor_Sampled_ResetAll@sensor	PTR struct . size(1) Largest target is 9
		 -> mtouch_sensor(BANK0[9]), 

    Sensor_setInactive@sensor.scanB	const PTR FTN()void  size(2) Largest target is 1
		 -> MTOUCH_CVD_ScanB_0(), 

    Sensor_setInactive@sensor.scanA	const PTR FTN()void  size(2) Largest target is 1
		 -> MTOUCH_CVD_ScanA_0(), 

    Sensor_setInactive@sensor	PTR struct . size(1) Largest target is 9
		 -> mtouch_sensor(BANK0[9]), 

    Sensor_setActive@sensor.scanB	const PTR FTN()void  size(2) Largest target is 1
		 -> MTOUCH_CVD_ScanB_0(), 

    Sensor_setActive@sensor.scanA	const PTR FTN()void  size(2) Largest target is 1
		 -> MTOUCH_CVD_ScanA_0(), 

    Sensor_setActive@sensor	PTR struct . size(1) Largest target is 9
		 -> mtouch_sensor(BANK0[9]), 

    Sensor_isEnabled@sensor.scanB	const PTR FTN()void  size(2) Largest target is 1
		 -> MTOUCH_CVD_ScanB_0(), 

    Sensor_isEnabled@sensor.scanA	const PTR FTN()void  size(2) Largest target is 1
		 -> MTOUCH_CVD_ScanA_0(), 

    Sensor_isEnabled@sensor	PTR struct . size(1) Largest target is 9
		 -> mtouch_sensor(BANK0[9]), 

    Sensor_setScanFunction@sensor.scanB	const PTR FTN()void  size(2) Largest target is 1
		 -> MTOUCH_CVD_ScanB_0(), 

    Sensor_setScanFunction@sensor.scanA	const PTR FTN()void  size(2) Largest target is 1
		 -> MTOUCH_CVD_ScanA_0(), 

    Sensor_setScanFunction@sensor	PTR struct . size(1) Largest target is 9
		 -> mtouch_sensor(BANK0[9]), 

    Sensor_RawSample_Update@sensor.scanB	const PTR FTN()void  size(2) Largest target is 1
		 -> MTOUCH_CVD_ScanB_0(), 

    Sensor_RawSample_Update@sensor.scanA	const PTR FTN()void  size(2) Largest target is 1
		 -> MTOUCH_CVD_ScanA_0(), 

    Sensor_RawSample_Update@sensor	PTR struct . size(1) Largest target is 9
		 -> mtouch_sensor(BANK0[9]), 

    Sensor_Acq_ExecutePacket@sensor.scanB	const PTR FTN()void  size(2) Largest target is 1
		 -> MTOUCH_CVD_ScanB_0(), 

    Sensor_Acq_ExecutePacket@sensor.scanA	const PTR FTN()void  size(2) Largest target is 1
		 -> MTOUCH_CVD_ScanA_0(), 

    Sensor_Acq_ExecutePacket@sensor	PTR struct . size(1) Largest target is 9
		 -> mtouch_sensor(BANK0[9]), 

    Sensor_Acquisition@sensor.scanB	const PTR FTN()void  size(2) Largest target is 1
		 -> MTOUCH_CVD_ScanB_0(), 

    Sensor_Acquisition@sensor.scanA	const PTR FTN()void  size(2) Largest target is 1
		 -> MTOUCH_CVD_ScanA_0(), 

    Sensor_Acquisition@sensor	PTR struct . size(1) Largest target is 9
		 -> mtouch_sensor(BANK0[9]), 

    Sensor_Service@sensor	PTR struct . size(1) Largest target is 9
		 -> mtouch_sensor(BANK0[9]), 

    S47$scanB	const PTR FTN()void  size(2) Largest target is 1
		 -> MTOUCH_CVD_ScanB_0(), 

    mtouch_sensor.scanB	const PTR FTN()void  size(2) Largest target is 1
		 -> MTOUCH_CVD_ScanB_0(), 

    S47$scanA	const PTR FTN()void  size(2) Largest target is 1
		 -> MTOUCH_CVD_ScanA_0(), 

    mtouch_sensor.scanA	const PTR FTN()void  size(2) Largest target is 1
		 -> MTOUCH_CVD_ScanA_0(), 

    Sensor_scanB	PTR FTN()void  size(2) Largest target is 1
		 -> MTOUCH_CVD_ScanB_0(), 

    Sensor_scanA	PTR FTN()void  size(2) Largest target is 1
		 -> MTOUCH_CVD_ScanA_0(), 

    callback_sampled	PTR FTN(enum E1336,)void  size(2) Largest target is 1
		 -> Sensor_DefaultCallback(), 


Critical Paths under _main in COMMON

    _MTOUCH_Initialize->_MTOUCH_Sensor_InitializeAll
    _MTOUCH_Sensor_InitializeAll->_MTOUCH_Sensor_Initialize
    _MTOUCH_Sensor_Initialize->_MTOUCH_Sensor_Enable
    _MTOUCH_Sensor_Enable->___bmul
    _MTOUCH_Proximity_InitializeAll->_memcpy
    _MTOUCH_Proximity_Tick->_Proximity_Tick_helper
    _MTOUCH_Sensor_Sampled_ResetAll->_Sensor_Sampled_Reset
    _Sensor_Acquisition->_Sensor_Acq_ExecutePacket
    _Sensor_Acq_ExecutePacket->_Sensor_Acq_ExecuteScan
    _Sensor_Acq_ExecuteScan->___bmul
    _Proximity_State_NotActivated->_MTOUCH_Proximity_Baseline_Get
    _Proximity_Baseline_Initialize->_MTOUCH_Sensor_RawSample_Get
    _Proximity_Reading_Update->_Proximity_Reading_Update_Helper
    _Proximity_Reading_Update_Helper->_MTOUCH_Sensor_RawSample_Get
    _MTOUCH_Sensor_RawSample_Get->___bmul
    _Proximity_Deviation_Update->_MTOUCH_Proximity_Baseline_Get
    _MTOUCH_Proximity_Baseline_Get->_Proximity_Baseline_Get_helper
    _MTOUCH_Sensor_wasSampled->___bmul

Critical Paths under _main in BANK0

    _main->_MTOUCH_Service_Mainloop
    _MTOUCH_Sensor_SampleAll->_Sensor_Service
    _Sensor_Service->_Sensor_Acquisition
    _MTOUCH_Proximity_ServiceAll->_Proximity_Service
    _Proximity_Service->_Proximity_Deviation_Update
    _Proximity_State_NotActivated->_MTOUCH_Proximity_Baseline_Get
    _Proximity_Reading_Update->_Proximity_Reading_Update_Helper
    _Proximity_Deviation_Update->_MTOUCH_Proximity_Baseline_Get

Critical Paths under _main in BANK1

    None.

Critical Paths under _main in BANK2

    None.

Call Graph Tables:

 ---------------------------------------------------------------------------------
 (Depth) Function   	        Calls       Base Space   Used Autos Params    Refs
 ---------------------------------------------------------------------------------
 (0) _main                                                 0     0      0    8328
_MTOUCH_Proximity_SetActivatedCallba
_MTOUCH_Proximity_SetNotActivatedCal
            _MTOUCH_Service_Mainloop
                  _SYSTEM_Initialize
 ---------------------------------------------------------------------------------
 (1) _SYSTEM_Initialize                                    0     0      0    1491
                  _MTOUCH_Initialize
              _OSCILLATOR_Initialize
             _PIN_MANAGER_Initialize
                     _WDT_Initialize
 ---------------------------------------------------------------------------------
 (2) _WDT_Initialize                                       0     0      0       0
 ---------------------------------------------------------------------------------
 (2) _PIN_MANAGER_Initialize                               0     0      0       0
 ---------------------------------------------------------------------------------
 (2) _OSCILLATOR_Initialize                                0     0      0       0
 ---------------------------------------------------------------------------------
 (2) _MTOUCH_Initialize                                    0     0      0    1491
     _MTOUCH_Proximity_InitializeAll
        _MTOUCH_Sensor_InitializeAll
     _MTOUCH_Sensor_Sampled_ResetAll
      _MTOUCH_Sensor_Scan_Initialize
 ---------------------------------------------------------------------------------
 (3) _MTOUCH_Sensor_InitializeAll                          2     2      0     896
                                              8 COMMON     2     2      0
           _MTOUCH_Sensor_Initialize
 ---------------------------------------------------------------------------------
 (4) _MTOUCH_Sensor_Initialize                             2     2      0     828
                                              6 COMMON     2     2      0
               _MTOUCH_Sensor_Enable
               _Sensor_Sampled_Reset
                             ___bmul
 ---------------------------------------------------------------------------------
 (5) _MTOUCH_Sensor_Enable                                 2     2      0     370
                                              4 COMMON     2     2      0
                             ___bmul
 ---------------------------------------------------------------------------------
 (3) _MTOUCH_Proximity_InitializeAll                       0     0      0     439
        _MTOUCH_Proximity_Initialize
                             _memcpy
 ---------------------------------------------------------------------------------
 (4) _memcpy                                              10     6      4     328
                                              0 COMMON    10     6      4
 ---------------------------------------------------------------------------------
 (1) _MTOUCH_Service_Mainloop                              1     1      0    6641
                                             19 BANK0      1     1      0
        _MTOUCH_Proximity_ServiceAll
            _MTOUCH_Sensor_SampleAll
     _MTOUCH_Sensor_Sampled_ResetAll
                        _MTOUCH_Tick
                 _MTOUCH_needReburst
 ---------------------------------------------------------------------------------
 (2) _MTOUCH_needReburst                                   1     1      0      23
                                              0 COMMON     1     1      0
 ---------------------------------------------------------------------------------
 (2) _MTOUCH_Tick                                          0     0      0     121
              _MTOUCH_Proximity_Tick
 ---------------------------------------------------------------------------------
 (3) _MTOUCH_Proximity_Tick                                0     0      0     121
              _Proximity_Tick_helper
 ---------------------------------------------------------------------------------
 (4) _Proximity_Tick_helper                                3     3      0     121
                                              0 COMMON     3     3      0
 ---------------------------------------------------------------------------------
 (3) _MTOUCH_Sensor_Sampled_ResetAll                       2     2      0     156
                                              1 COMMON     2     2      0
               _Sensor_Sampled_Reset
 ---------------------------------------------------------------------------------
 (4) _Sensor_Sampled_Reset                                 1     1      0      88
                                              0 COMMON     1     1      0
 ---------------------------------------------------------------------------------
 (2) _MTOUCH_Sensor_SampleAll                              2     2      0    2105
                                              8 BANK0      2     2      0
                     _Sensor_Service
 ---------------------------------------------------------------------------------
 (3) _Sensor_Service                                       5     5      0    2037
                                              3 BANK0      5     5      0
                 _Sensor_Acquisition
             _Sensor_DefaultCallback
            _Sensor_RawSample_Update
                   _Sensor_isEnabled
                  _Sensor_setSampled
                             ___bmul
 ---------------------------------------------------------------------------------
 (4) _Sensor_setSampled                                    1     1      0      55
                                              0 COMMON     1     1      0
 ---------------------------------------------------------------------------------
 (4) _Sensor_RawSample_Update                              1     1      0      77
                                              0 COMMON     1     1      0
 ---------------------------------------------------------------------------------
 (4) _Sensor_DefaultCallback                               1     0      1      53
                                              0 COMMON     1     0      1
 ---------------------------------------------------------------------------------
 (4) _Sensor_Acquisition                                   3     3      0    1238
                                              0 BANK0      3     3      0
           _Sensor_Acq_ExecutePacket
                   _Sensor_isEnabled
                   _Sensor_setActive
                 _Sensor_setInactive
                                _abs
 ---------------------------------------------------------------------------------
 (5) _abs                                                  4     2      2     142
                                              0 COMMON     4     2      2
 ---------------------------------------------------------------------------------
 (5) _Sensor_setInactive                                   1     1      0      55
                                              0 COMMON     1     1      0
 ---------------------------------------------------------------------------------
 (5) _Sensor_setActive                                     1     1      0      55
                                              0 COMMON     1     1      0
 ---------------------------------------------------------------------------------
 (4) _Sensor_isEnabled                                     1     1      0     110
                                              0 COMMON     1     1      0
 ---------------------------------------------------------------------------------
 (5) _Sensor_Acq_ExecutePacket                             6     6      0     709
                                              8 COMMON     6     6      0
                       _MTOUCH_Delay
                      _MTOUCH_Random
      _MTOUCH_Sensor_Scan_Initialize
             _Sensor_Acq_ExecuteScan
             _Sensor_setScanFunction
 ---------------------------------------------------------------------------------
 (6) _Sensor_setScanFunction                               1     1      0      77
                                              0 COMMON     1     1      0
 ---------------------------------------------------------------------------------
 (6) _Sensor_Acq_ExecuteScan                               4     4      0     394
                                              4 COMMON     4     4      0
                 _MTOUCH_CVD_ScanA_0
                 _MTOUCH_CVD_ScanB_0
                             ___bmul
 ---------------------------------------------------------------------------------
 (7) _MTOUCH_CVD_ScanB_0                                   0     0      0       0
 ---------------------------------------------------------------------------------
 (7) _MTOUCH_CVD_ScanA_0                                   0     0      0       0
 ---------------------------------------------------------------------------------
 (3) _MTOUCH_Sensor_Scan_Initialize                        0     0      0       0
 ---------------------------------------------------------------------------------
 (6) _MTOUCH_Random                                        1     1      0       0
                                              0 COMMON     1     1      0
 ---------------------------------------------------------------------------------
 (6) _MTOUCH_Delay                                         2     2      0      46
                                              0 COMMON     2     2      0
 ---------------------------------------------------------------------------------
 (2) _MTOUCH_Proximity_ServiceAll                          0     0      0    4236
                  _Proximity_Service
 ---------------------------------------------------------------------------------
 (3) _Proximity_Service                                    3     3      0    4236
                                             16 BANK0      3     3      0
        _MTOUCH_Proximity_Initialize
         _MTOUCH_Sensor_isCalibrated
           _MTOUCH_Sensor_wasSampled
         _Proximity_Deviation_Update
           _Proximity_Reading_Update
          _Proximity_State_Activated *
       _Proximity_State_Initializing *
       _Proximity_State_NotActivated *
 ---------------------------------------------------------------------------------
 (4) _Proximity_State_NotActivated                        12    11      1     953
                                              1 BANK0     12    11      1
      _MTOUCH_Proximity_Baseline_Get
        _MTOUCH_Proximity_Initialize
       _MTOUCH_Proximity_Reading_Get
          _Proximity_Baseline_Update
          _Proximity_DefaultCallback *
    _User_Proximity_Actived_Callback *
 ---------------------------------------------------------------------------------
 (5) _User_Proximity_Actived_Callback                      3     2      1      75
                                              0 COMMON     3     2      1
 ---------------------------------------------------------------------------------
 (4) _Proximity_State_Initializing                         3     2      1     892
                                              1 BANK0      3     2      1
      _Proximity_Baseline_Initialize
          _Proximity_Baseline_Update
 ---------------------------------------------------------------------------------
 (5) _Proximity_Baseline_Update                            5     5      0     260
                                              0 COMMON     5     5      0
 ---------------------------------------------------------------------------------
 (5) _Proximity_Baseline_Initialize                        5     5      0     478
                                              8 COMMON     5     5      0
        _MTOUCH_Sensor_RawSample_Get
 ---------------------------------------------------------------------------------
 (4) _Proximity_State_Activated                            7     6      1     512
                                              1 BANK0      7     6      1
        _MTOUCH_Proximity_Initialize
          _Proximity_DefaultCallback *
  _User_Proximity_Deactived_Callback *
 ---------------------------------------------------------------------------------
 (5) _User_Proximity_Deactived_Callback                    3     2      1     128
                                              0 COMMON     3     2      1
 ---------------------------------------------------------------------------------
 (5) _Proximity_DefaultCallback                            1     0      1       0
                                              0 COMMON     1     0      1
 ---------------------------------------------------------------------------------
 (4) _MTOUCH_Proximity_Initialize                          3     3      0     111
                                              0 COMMON     3     3      0
 ---------------------------------------------------------------------------------
 (4) _Proximity_Reading_Update                             1     1      0     667
                                              1 BANK0      1     1      0
    _Proximity_Reading_Update_Helper
 ---------------------------------------------------------------------------------
 (5) _Proximity_Reading_Update_Helper                      7     7      0     590
                                              8 COMMON     6     6      0
                                              0 BANK0      1     1      0
        _MTOUCH_Sensor_RawSample_Get
 ---------------------------------------------------------------------------------
 (6) _MTOUCH_Sensor_RawSample_Get                          4     2      2     370
                                              4 COMMON     4     2      2
                             ___bmul
 ---------------------------------------------------------------------------------
 (4) _Proximity_Deviation_Update                          15    15      0     532
                                              1 BANK0     15    15      0
      _MTOUCH_Proximity_Baseline_Get
       _MTOUCH_Proximity_Reading_Get
 ---------------------------------------------------------------------------------
 (5) _MTOUCH_Proximity_Reading_Get                         6     1      5      44
                                              0 COMMON     6     1      5
 ---------------------------------------------------------------------------------
 (5) _MTOUCH_Proximity_Baseline_Get                        6     1      5      66
                                              9 COMMON     5     0      5
                                              0 BANK0      1     1      0
      _Proximity_Baseline_Get_helper
 ---------------------------------------------------------------------------------
 (6) _Proximity_Baseline_Get_helper                        9     5      4      22
                                              0 COMMON     9     5      4
 ---------------------------------------------------------------------------------
 (4) _MTOUCH_Sensor_wasSampled                             2     2      0     370
                                              4 COMMON     2     2      0
                             ___bmul
 ---------------------------------------------------------------------------------
 (5) ___bmul                                               4     3      1     326
                                              0 COMMON     4     3      1
 ---------------------------------------------------------------------------------
 (4) _MTOUCH_Sensor_isCalibrated                           1     1      0       0
 ---------------------------------------------------------------------------------
 (1) _MTOUCH_Proximity_SetNotActivatedCallback             2     0      2      98
                                              0 COMMON     2     0      2
 ---------------------------------------------------------------------------------
 (1) _MTOUCH_Proximity_SetActivatedCallback                2     0      2      98
                                              0 COMMON     2     0      2
 ---------------------------------------------------------------------------------
 Estimated maximum stack depth 7
 ---------------------------------------------------------------------------------

 Call Graph Graphs:

 _main (ROOT)
   _MTOUCH_Proximity_SetActivatedCallback
   _MTOUCH_Proximity_SetNotActivatedCallback
   _MTOUCH_Service_Mainloop
     _MTOUCH_Proximity_ServiceAll
       _Proximity_Service
         _MTOUCH_Proximity_Initialize
         _MTOUCH_Sensor_isCalibrated
         _MTOUCH_Sensor_wasSampled
           ___bmul
         _Proximity_Deviation_Update
           _MTOUCH_Proximity_Baseline_Get
             _Proximity_Baseline_Get_helper
           _MTOUCH_Proximity_Reading_Get
         _Proximity_Reading_Update
           _Proximity_Reading_Update_Helper
             _MTOUCH_Sensor_RawSample_Get
               ___bmul
         _Proximity_State_Activated *
           _MTOUCH_Proximity_Initialize
           _Proximity_DefaultCallback *
           _User_Proximity_Deactived_Callback *
         _Proximity_State_Initializing *
           _Proximity_Baseline_Initialize
             _MTOUCH_Sensor_RawSample_Get
               ___bmul
           _Proximity_Baseline_Update
         _Proximity_State_NotActivated *
           _MTOUCH_Proximity_Baseline_Get
             _Proximity_Baseline_Get_helper
           _MTOUCH_Proximity_Initialize
           _MTOUCH_Proximity_Reading_Get
           _Proximity_Baseline_Update
           _Proximity_DefaultCallback *
           _User_Proximity_Actived_Callback *
     _MTOUCH_Sensor_SampleAll
       _Sensor_Service
         _Sensor_Acquisition
           _Sensor_Acq_ExecutePacket
             _MTOUCH_Delay
             _MTOUCH_Random
             _MTOUCH_Sensor_Scan_Initialize
             _Sensor_Acq_ExecuteScan
               _MTOUCH_CVD_ScanA_0
               _MTOUCH_CVD_ScanB_0
               ___bmul
             _Sensor_setScanFunction
           _Sensor_isEnabled
           _Sensor_setActive
           _Sensor_setInactive
           _abs
         _Sensor_DefaultCallback
         _Sensor_RawSample_Update
         _Sensor_isEnabled
         _Sensor_setSampled
         ___bmul
     _MTOUCH_Sensor_Sampled_ResetAll
       _Sensor_Sampled_Reset
     _MTOUCH_Tick
       _MTOUCH_Proximity_Tick
         _Proximity_Tick_helper
     _MTOUCH_needReburst
   _SYSTEM_Initialize
     _MTOUCH_Initialize
       _MTOUCH_Proximity_InitializeAll
         _MTOUCH_Proximity_Initialize
         _memcpy
       _MTOUCH_Sensor_InitializeAll
         _MTOUCH_Sensor_Initialize
           _MTOUCH_Sensor_Enable
             ___bmul
           _Sensor_Sampled_Reset
           ___bmul
       _MTOUCH_Sensor_Sampled_ResetAll
         _Sensor_Sampled_Reset
       _MTOUCH_Sensor_Scan_Initialize
     _OSCILLATOR_Initialize
     _PIN_MANAGER_Initialize
     _WDT_Initialize

 Address spaces:
Name               Size   Autos  Total    Cost      Usage
BIGRAM              F0      0       0       0        0.0%
NULL                 0      0       0       0        0.0%
CODE                 0      0       0       0        0.0%
BITCOMMON            E      0       0       1        0.0%
BITSFR0              0      0       0       1        0.0%
SFR0                 0      0       0       1        0.0%
COMMON               E      E       E       2      100.0%
BITSFR1              0      0       0       2        0.0%
SFR1                 0      0       0       2        0.0%
BITSFR2              0      0       0       3        0.0%
SFR2                 0      0       0       3        0.0%
STACK                0      0       0       3        0.0%
BITSFR3              0      0       0       4        0.0%
SFR3                 0      0       0       4        0.0%
ABS                  0      0      56       4        0.0%
BITBANK0            50      0       0       5        0.0%
BITSFR4              0      0       0       5        0.0%
SFR4                 0      0       0       5        0.0%
BANK0               50     14      48       6       90.0%
BITSFR5              0      0       0       6        0.0%
SFR5                 0      0       0       6        0.0%
BITBANK1            50      0       0       7        0.0%
BITSFR6              0      0       0       7        0.0%
SFR6                 0      0       0       7        0.0%
BANK1               50      0       0       8        0.0%
BITSFR7              0      0       0       8        0.0%
SFR7                 0      0       0       8        0.0%
BITBANK2            50      0       0       9        0.0%
BITSFR8              0      0       0       9        0.0%
SFR8                 0      0       0       9        0.0%
BANK2               50      0       0      10        0.0%
BITSFR9              0      0       0      10        0.0%
SFR9                 0      0       0      10        0.0%
BITSFR10             0      0       0      11        0.0%
SFR10                0      0       0      11        0.0%
DATA                 0      0      56      11        0.0%
BITSFR11             0      0       0      12        0.0%
SFR11                0      0       0      12        0.0%
BITSFR12             0      0       0      13        0.0%
SFR12                0      0       0      13        0.0%
BITSFR13             0      0       0      14        0.0%
SFR13                0      0       0      14        0.0%
BITSFR14             0      0       0      15        0.0%
SFR14                0      0       0      15        0.0%
BITSFR15             0      0       0      16        0.0%
SFR15                0      0       0      16        0.0%
BITSFR16             0      0       0      17        0.0%
SFR16                0      0       0      17        0.0%
BITSFR17             0      0       0      18        0.0%
SFR17                0      0       0      18        0.0%
BITSFR18             0      0       0      19        0.0%
SFR18                0      0       0      19        0.0%
BITSFR19             0      0       0      20        0.0%
SFR19                0      0       0      20        0.0%
BITSFR20             0      0       0      21        0.0%
SFR20                0      0       0      21        0.0%
BITSFR21             0      0       0      22        0.0%
SFR21                0      0       0      22        0.0%
BITSFR22             0      0       0      23        0.0%
SFR22                0      0       0      23        0.0%
BITSFR23             0      0       0      24        0.0%
SFR23                0      0       0      24        0.0%
BITSFR24             0      0       0      25        0.0%
SFR24                0      0       0      25        0.0%
BITSFR25             0      0       0      26        0.0%
SFR25                0      0       0      26        0.0%
BITSFR26             0      0       0      27        0.0%
SFR26                0      0       0      27        0.0%
BITSFR27             0      0       0      28        0.0%
SFR27                0      0       0      28        0.0%
BITSFR28             0      0       0      29        0.0%
SFR28                0      0       0      29        0.0%
BITSFR29             0      0       0      30        0.0%
SFR29                0      0       0      30        0.0%
BITSFR30             0      0       0      31        0.0%
SFR30                0      0       0      31        0.0%
BITSFR31             0      0       0      32        0.0%
SFR31                0      0       0      32        0.0%


Microchip Technology PIC Macro Assembler V2.10 build 88905656 
Symbol Table                                                                                   Tue Nov 26 18:57:59 2019

                     ?_MTOUCH_Sensor_RawSample_Get 0074                                     ___bmul@product 0072  
                                      __CFG_CP$OFF 0000              Proximity_State_NotActivated@deviation 005D  
                           _Sensor_setScanFunction 0192                    __size_of_Sensor_Acq_ExecuteScan 0049  
                       __end_of_Sensor_setInactive 0082                           _Proximity_Reading_Update 00A1  
                                              LATA 010C                                        __CFG_LVP$ON 0000  
                   Proximity_Deviation_Update@name 0063                                                l125 0468  
                                              l129 047A                                                l306 06CA  
                                              l431 017F                                                l440 0191  
                                              l427 016F                                                l436 0181  
                                              l545 00E8                                                _GIE 005F  
                                              u815 01D4                                                u825 0318  
                                              u755 0258                                                u845 05B3  
                                              u855 05F3                                                u980 071B  
                                              u895 04DA                                                u985 0717  
                                              _abs 01CB                                       __CFG_BORV$LO 0000  
                                              wreg 0009                   ??_MTOUCH_Sensor_Sampled_ResetAll 0071  
                  ?_MTOUCH_Sensor_Sampled_ResetAll 0070                   __size_of_MTOUCH_Sensor_SampleAll 0011  
                __size_of_MTOUCH_Sensor_Initialize 000C                          ?_MTOUCH_Sensor_Initialize 0070  
                                             INDF0 0000                                               FSR0H 0005  
                                             FSR1H 0007                                               FSR0L 0004  
                                             FSR1L 0006                                 _MTOUCH_CVD_ScanA_0 028A  
                               _MTOUCH_CVD_ScanB_0 02AF                                               l2003 0172  
                                             ?_abs 0070                                               l2013 0184  
                                             l2111 0750                                               l2031 0359  
                                             l2121 078B                                               l2105 0734  
                                             l2115 075B                                               l2107 073C  
                                             l2131 0391                                               l2043 037B  
                                             l2027 0357                                               l2203 0419  
                                             l2125 07E2                                               l2133 0393  
                                             l2037 0360                                               l2205 0436  
                                             l2073 016C                                               l2057 01F0  
                                             l2155 06C3                                               l2243 03E5  
                                             l2149 0697                                               l2421 0495  
                                             l2253 013B                                               l2423 018C  
                                             l2167 054D                                               l2087 032C  
                                             l2097 00A9                                               l2425 017A  
                                             l2417 0426                                               l2185 00AD  
                                             l2419 042B                                               l2195 040A  
                                             l2259 0142                                               l1809 00FD  
                                             l1841 04B8                                               l1833 048C  
                                             l1843 04BC                                               l1835 049D  
                                             l1827 0488                                               l1829 048A  
                                             l1845 04BF                                               l1791 0131  
                                             l1871 01C8                                               l1919 0460  
                                             l1787 012B                                               l1965 05E6  
                                             l1893 00CE                                               l1975 023E  
                                             l1987 0208                                               l1997 050C  
                                             TRISA 008C                                       __CFG_WDTE$ON 0000  
                                             u1025 0768                                               u1063 07D4  
                                             u1055 0795                                               u1145 0554  
                                             u1307 0290                                               u1093 0670  
                                             u1165 057D                                               _LATA 010C  
                                             u1297 02B5                     ?_Proximity_Baseline_Initialize 0070  
                                _Proximity_Service 03BA                                               _WPUA 020C  
                __size_of_Sensor_Acq_ExecutePacket 0044                          ?_Sensor_Acq_ExecutePacket 0070  
                                     __CFG_WRT$OFF 0000                                 _MTOUCH_needReburst 0042  
                                             abs@a 0070                                               _main 00DD  
                        _Proximity_Baseline_Update 05A2                                               fsr0h 0005  
                                             fsr1h 0007                                               indf0 0000  
                                             fsr0l 0004                                               indf1 0001  
                                             fsr1l 0006                                 ?_Proximity_Service 0070  
             __size_of_MTOUCH_Sensor_InitializeAll 000B                                               btemp 007E  
                              ?_MTOUCH_CVD_ScanA_0 0070                                ?_MTOUCH_CVD_ScanB_0 0070  
                      ??_Proximity_State_Activated 0056                                               start 0001  
                      ?_Proximity_Deviation_Update 0070                                  ___bmul@multiplier 0073  
                                    __CFG_MCLRE$ON 0000                                ?_MTOUCH_needReburst 0070  
                              ??_Proximity_Service 0064                                              ADCON0 009D  
                         ?_MTOUCH_Service_Mainloop 0070                                              ??_abs 0072  
                    ??_MTOUCH_Sensor_RawSample_Get 0076                      Sensor_RawSample_Update@sensor 0070  
                        __size_of_Sensor_isEnabled 000D                     __size_of_OSCILLATOR_Initialize 0007  
                    __end_of_OSCILLATOR_Initialize 0097                                              ?_main 0070  
                                            _ADRES 009B                               ??_MTOUCH_CVD_ScanA_0 0070  
                             ??_MTOUCH_CVD_ScanB_0 0070                            ??_Proximity_Tick_helper 0070  
                                            _TRISA 008C                               ??_MTOUCH_needReburst 0070  
                  __size_of_Sensor_DefaultCallback 0001                          __end_of_Proximity_Service 03F8  
                          __size_of_Sensor_Service 0040              __end_of_MTOUCH_Sensor_Scan_Initialize 0058  
           __size_of_MTOUCH_Sensor_Scan_Initialize 0005                      _MTOUCH_Sensor_Scan_Initialize 0053  
                                   _WDT_Initialize 004A                            Sensor_setSampled@sensor 0070  
                           _Sensor_Acq_ExecuteScan 047C                                              pclath 000A  
                             _Sensor_Sampled_Reset 0089                                              status 0003  
                                            wtemp0 007E                          __size_of_Sensor_setActive 0007  
                           Sensor_isEnabled@sensor 0070                                    __initialization 07EE  
                                     __end_of_main 00EA                              _MTOUCH_Proximity_Tick 0047  
                            __end_of_MTOUCH_Random 0109                                     __CFG_LPBOR$OFF 0000  
                                           ??_main 007E                          _Proximity_State_Activated 052B  
             MTOUCH_Sensor_Sampled_ResetAll@sensor 0072                             __end_of_WDT_Initialize 004E  
                    __end_of_mtouch_proximity_init 01B6                        ??_Proximity_DefaultCallback 0071  
                                     ?_MTOUCH_Tick 0070                                             _ADCON0 009D  
                                           _ADCON1 009E               __size_of_MTOUCH_Sensor_RawSample_Get 0015  
                                           _APFCON 011D                                             _ANSELA 018C  
                                           _BORCON 0116                              ?_Sensor_Sampled_Reset 0070  
                                           _OSCCON 0099                                             _WDTCON 0097  
                  __end_of_MTOUCH_Service_Mainloop 0119                                     __CFG_PWRTE$OFF 0000  
                           _Sensor_DefaultCallback 003D                                      _packet_sample 0020  
                                 _mtouch_proximity 0029                                             ___bmul 0129  
                     Sensor_DefaultCallback@sensor 0070                                     __CFG_STVREN$ON 0000  
                                           _memcpy 0323                            _MTOUCH_Sensor_SampleAll 013A  
                                  ?_WDT_Initialize 0070                           ?_Sensor_RawSample_Update 0070  
                       __end_of_Sensor_Acquisition 037F                __size_of_Proximity_Deviation_Update 0105  
                       __size_of_Proximity_Service 003E                    MTOUCH_Sensor_RawSample_Get@name 0077  
                                _SYSTEM_Initialize 005D                            __end_of__initialization 07FE  
                  MTOUCH_Proximity_Initialize@name 0071                     ?_MTOUCH_Sensor_Scan_Initialize 0070  
                  MTOUCH_Proximity_Initialize@prox 0072                                 ?_SYSTEM_Initialize 0070  
                              ___bmul@multiplicand 0070                         ??_Proximity_Reading_Update 007E  
                        _Proximity_DefaultCallback 003C                            ?_Sensor_setScanFunction 0070  
                           ?_MTOUCH_Proximity_Tick 0070             __end_of_MTOUCH_Proximity_InitializeAll 00DD  
          __size_of_MTOUCH_Proximity_InitializeAll 000D                     _MTOUCH_Proximity_InitializeAll 00D0  
                                   __pcstackCOMMON 0070                                       __pidataBANK0 0211  
                              ??_SYSTEM_Initialize 007A                 __size_of_Proximity_Baseline_Update 0083  
                 Proximity_State_Initializing@prox 0055                   __end_of_MTOUCH_Sensor_Initialize 00C3  
                                 _Sensor_isEnabled 00C3                           Sensor_setInactive@sensor 0070  
                  ??_Proximity_Baseline_Get_helper 0074                   __end_of_Sensor_Acq_ExecutePacket 047C  
                                   _OPTION_REGbits 0095                      Proximity_State_Activated@prox 0055  
                             Sensor_Service@sensor 005B                                     _Sensor_Service 03F8  
                    __size_of_MTOUCH_Sensor_Enable 000F                                 _Sensor_setInactive 007B  
                        __end_of_SYSTEM_Initialize 0062                                  _lowpowerActivated 0024  
                 MTOUCH_Sensor_isCalibrated@sensor 0070                             ??_Sensor_Sampled_Reset 0070  
                                       __pbssBANK0 0020                User_Proximity_Actived_Callback@name 0070  
                              ?_Sensor_setInactive 0070                                   _Sensor_setActive 0074  
                               Sensor_Service@name 0059                     __end_of_Sensor_setScanFunction 01A4  
          __end_of_Proximity_Reading_Update_Helper 052B           __size_of_Proximity_Reading_Update_Helper 0066  
                ??_Proximity_Reading_Update_Helper 0078                   ?_Proximity_Reading_Update_Helper 0070  
                  _Proximity_Reading_Update_Helper 04C5                                         __pmaintext 00DD  
                                    ?_MTOUCH_Delay 0070                                            ?___bmul 0070  
                  ??_Proximity_Baseline_Initialize 0078                     MTOUCH_Sensor_wasSampled@sensor 0075  
              Proximity_Deviation_Update@deviation 005F                                            ?_memcpy 0070  
                     ?_MTOUCH_Proximity_Initialize 0070                __end_of_MTOUCH_Sensor_InitializeAll 00B7  
                      _MTOUCH_Sensor_InitializeAll 00AC                          ??_MTOUCH_Sensor_SampleAll 005C  
                  __end_of_Sensor_RawSample_Update 01F9                               ??_Sensor_setInactive 0070  
                __size_of_MTOUCH_Sensor_wasSampled 0012                          ?_MTOUCH_Sensor_wasSampled 0070  
                           __end_of_Sensor_Service 0438                     __size_of_Proximity_Tick_helper 0023  
                    __end_of_Proximity_Tick_helper 028A                            ?_Sensor_Acq_ExecuteScan 0070  
                    MTOUCH_Sensor_SampleAll@sensor 005D                                            _OSCSTAT 009A  
                 __size_of_MTOUCH_Service_Mainloop 0010                 __size_of_Proximity_State_Activated 0077  
                             __size_of_MTOUCH_Tick 0002      __end_of_MTOUCH_Proximity_SetActivatedCallback 0068  
   __size_of_MTOUCH_Proximity_SetActivatedCallback 0006            ??_MTOUCH_Proximity_SetActivatedCallback 0072  
           ?_MTOUCH_Proximity_SetActivatedCallback 0070              _MTOUCH_Proximity_SetActivatedCallback 0062  
 MTOUCH_Proximity_SetNotActivatedCallback@callback 0070                                     ??_MTOUCH_Delay 0070  
                                   _packet_counter 0026                            Sensor_Acquisition@retry 0055  
                                  __size_of___bmul 0011               __end_of_Proximity_State_Initializing 03BA  
            __size_of_Proximity_State_Initializing 003B                       _Proximity_State_Initializing 037F  
            __end_of_MTOUCH_Proximity_Baseline_Get 0211             __size_of_MTOUCH_Proximity_Baseline_Get 0018  
                    _MTOUCH_Proximity_Baseline_Get 01F9                       ?_MTOUCH_Proximity_ServiceAll 0070  
                                  __size_of_memcpy 002A                                            __ptext1 005D  
                                          __ptext2 004A                                            __ptext3 0119  
                                          __ptext4 0090                                            __ptext5 0058  
                                          __ptext6 00AC                                            __ptext7 00B7  
                                          __ptext8 00EA                                            __ptext9 00D0  
                      __size_of_MTOUCH_CVD_ScanA_0 0025                        __size_of_MTOUCH_CVD_ScanB_0 0025  
                    ??_MTOUCH_Proximity_Initialize 0070                           _MTOUCH_Sensor_Initialize 00B7  
                   __end_of_Sensor_Acq_ExecuteScan 04C5                              _OSCILLATOR_Initialize 0090  
                                     __size_of_abs 0017                                    ?_Sensor_Service 0070  
                         ??_PIN_MANAGER_Initialize 0070                        __size_of_MTOUCH_needReburst 0002  
                MTOUCH_Sensor_InitializeAll@sensor 0079                           _Sensor_Acq_ExecutePacket 0438  
                                 _callback_sampled 0049                         __size_of_SYSTEM_Initialize 0005  
                                          clrloop0 0069                     MTOUCH_Sensor_Initialize@sensor 0077  
                             end_of_initialization 07FE                                            memcpy@d 0079  
                                          memcpy@n 0072                                            memcpy@s 0075  
                                          init_ram 006E                                            initloop 006F  
                Proximity_Baseline_Initialize@prox 007C                            ?_Sensor_DefaultCallback 0070  
                     ??_MTOUCH_Sensor_isCalibrated 0070      MTOUCH_Proximity_SetActivatedCallback@callback 0070  
                        Proximity_Tick_helper@prox 0072                __end_of_MTOUCH_Sensor_RawSample_Get 01CB  
                      _MTOUCH_Sensor_RawSample_Get 01B6               __end_of_Proximity_State_NotActivated 06E9  
            __size_of_Proximity_State_NotActivated 00C4                       _Proximity_State_NotActivated 0625  
                    ?_Proximity_State_Initializing 0055                                      MTOUCH_Delay@i 0071  
                                 ??_WDT_Initialize 0070                 __size_of_Proximity_DefaultCallback 0001  
                    ??_MTOUCH_Proximity_ServiceAll 007E                             Sensor_setActive@sensor 0070  
                                 __CFG_FOSC$INTOSC 0000                         MTOUCH_Sensor_Enable@sensor 0075  
                            _mtouch_proximity_init 01A4                __size_of_MTOUCH_Sensor_isCalibrated 0002  
                 Proximity_State_NotActivated@prox 0055                                 _sensor_globalFlags 0028  
                           __size_of_MTOUCH_Random 0010                           __end_of_Sensor_isEnabled 00D0  
                   __end_of_Sensor_DefaultCallback 003E               __size_of_MTOUCH_Proximity_Initialize 0027  
                     Sensor_Acq_ExecuteScan@result 0076                            ??_MTOUCH_Proximity_Tick 0073  
                 __size_of_Sensor_RawSample_Update 0017                                 _Sensor_Acquisition 034D  
                                   __end_of___bmul 013A                                ?_Sensor_Acquisition 0070  
                  ??_MTOUCH_Sensor_Scan_Initialize 0070                      ?_Proximity_State_NotActivated 0055  
                    Sensor_Acq_ExecutePacket@error 007C                                     __end_of_memcpy 034D  
                           ?_OSCILLATOR_Initialize 0070                           __end_of_Sensor_setActive 007B  
                   ?_MTOUCH_Proximity_Baseline_Get 0079              User_Proximity_Deactived_Callback@name 0070  
                              start_initialization 07EE                            _MTOUCH_Service_Mainloop 0109  
                 ??_MTOUCH_Proximity_InitializeAll 007A                    ?_MTOUCH_Proximity_InitializeAll 0070  
                           _Proximity_StateMachine 003B                    __size_of_PIN_MANAGER_Initialize 0010  
                             __end_of_MTOUCH_Delay 00A1                                        __end_of_abs 01E2  
                             ??_Sensor_Acquisition 0054               __size_of_MTOUCH_Proximity_ServiceAll 0003  
                 __end_of_MTOUCH_Sensor_wasSampled 016E                       ??_Proximity_Deviation_Update 0055  
                     __end_of_MTOUCH_Sensor_Enable 00F9                                           ??___bmul 0071  
                                      __pdataBANK0 003B                                      _MTOUCH_Random 00F9  
                                         ??_memcpy 0074                         Sensor_Sampled_Reset@sensor 0070  
          __end_of_User_Proximity_Actived_Callback 0180           __size_of_User_Proximity_Actived_Callback 0012  
                ??_User_Proximity_Actived_Callback 0071                   ?_User_Proximity_Actived_Callback 0070  
                  _User_Proximity_Actived_Callback 016E                     ??_Proximity_State_Initializing 0056  
                __size_of_Proximity_Reading_Update 000B                          ?_Proximity_Reading_Update 0070  
                                        ___latbits 0000                              Proximity_Service@name 0065  
                                    __pcstackBANK0 0054                              Proximity_Service@prox 0066  
             __end_of_MTOUCH_Proximity_Reading_Get 0247              __size_of_MTOUCH_Proximity_Reading_Get 001D  
                     _MTOUCH_Proximity_Reading_Get 022A                                Sensor_Service@error 005A  
                    __size_of_Sensor_Sampled_Reset 0007                       Proximity_Reading_Update@prox 0055  
               __end_of_MTOUCH_Sensor_isCalibrated 0040                         _MTOUCH_Sensor_isCalibrated 003E  
                                _Sensor_setSampled 0082                             _PIN_MANAGER_Initialize 0119  
                               ?_Sensor_setSampled 0070                         ??_MTOUCH_Sensor_Initialize 0076  
                                   ?_MTOUCH_Random 0070                                   ??_Sensor_Service 0057  
                       ??_Sensor_Acq_ExecutePacket 0078                                ??_Sensor_setSampled 0070  
                        ??_MTOUCH_Service_Mainloop 0067                                 _callback_activated 0043  
                       ?_Proximity_Baseline_Update 0070                        __size_of_Sensor_setInactive 0007  
                   ??_Proximity_State_NotActivated 0056                     Sensor_Acq_ExecutePacket@sensor 007D  
                                    ??_MTOUCH_Tick 0073                              _Proximity_Tick_helper 0267  
              Proximity_Reading_Update_Helper@prox 0054                      ?_MTOUCH_Proximity_Reading_Get 0070  
                        __end_of_Sensor_setSampled 0089                                           _LATAbits 010C  
                               _currentScannSensor 0027                            _Sensor_RawSample_Update 01E2  
                                        clear_ram0 0068             __end_of_MTOUCH_Sensor_Sampled_ResetAll 015C  
          __size_of_MTOUCH_Sensor_Sampled_ResetAll 0011                     _MTOUCH_Sensor_Sampled_ResetAll 014B  
                         ?_MTOUCH_Sensor_SampleAll 0070                  Proximity_Baseline_Get_helper@name 0078  
                         _MTOUCH_Sensor_wasSampled 015C                                 _mtouch_time_toScan 0022  
                       __end_of_MTOUCH_CVD_ScanA_0 02AF                         __end_of_MTOUCH_CVD_ScanB_0 02D4  
                                       _ADCON0bits 009D                              __size_of_MTOUCH_Delay 000A  
                    Proximity_DefaultCallback@name 0070                  __end_of_Proximity_Baseline_Update 0625  
                       __end_of_MTOUCH_needReburst 0044   __end_of_MTOUCH_Proximity_SetNotActivatedCallback 0053  
__size_of_MTOUCH_Proximity_SetNotActivatedCallback 0005         ??_MTOUCH_Proximity_SetNotActivatedCallback 0072  
        ?_MTOUCH_Proximity_SetNotActivatedCallback 0070           _MTOUCH_Proximity_SetNotActivatedCallback 004E  
                             _MTOUCH_Sensor_Enable 00EA                           ??_Sensor_setScanFunction 0070  
                                ?_Sensor_isEnabled 0070                                __end_of_MTOUCH_Tick 0042  
                                _MTOUCH_Initialize 0058                         ?_Proximity_State_Activated 0055  
                               ??_Sensor_isEnabled 0070                 __end_of_Proximity_Deviation_Update 07EE  
                       _Proximity_Deviation_Update 06E9                                 ?_MTOUCH_Initialize 0070  
                   __size_of_MTOUCH_Proximity_Tick 0003                      __end_of_MTOUCH_Proximity_Tick 004A  
                                        memcpy@tmp 0077                                    ??_MTOUCH_Random 0070  
                                     _MTOUCH_Delay 0097                                       _sample_delay 0025  
                          ??_OSCILLATOR_Initialize 0070                           Sensor_Acquisition@sensor 0056  
                              ??_MTOUCH_Initialize 007A                __end_of_MTOUCH_Proximity_Initialize 02FB  
                      _MTOUCH_Proximity_Initialize 02D4                   MTOUCH_Proximity_Reading_Get@name 0075  
                                ?_Sensor_setActive 0070                                       _Sensor_scanA 0047  
                                     _Sensor_scanB 0045                                 ??_Sensor_setActive 0070  
                           ?_Proximity_Tick_helper 0070                              ?_MTOUCH_Sensor_Enable 0070  
                                         __ptext10 0323                                           __ptext11 0109  
                                         __ptext20 0082                                           __ptext12 0042  
                                         __ptext21 01E2                                           __ptext13 0040  
                                         __ptext30 047C                                           __ptext22 003D  
                                         __ptext14 0047                                           __ptext31 02AF  
                                         __ptext23 034D                                           __ptext15 0267  
                                         __ptext40 0625                                           __ptext32 028A  
                                         __ptext24 01CB                                           __ptext16 014B  
                                         __ptext41 0180                                           __ptext33 0053  
                                         __ptext25 007B                                           __ptext17 0089  
                                         __ptext50 06E9                                           __ptext42 003C  
                                         __ptext34 00F9                                           __ptext26 0074  
                                         __ptext18 013A                                           __ptext51 022A  
                                         __ptext43 016E                                           __ptext35 0097  
                                         __ptext27 00C3                                           __ptext19 03F8  
                                         __ptext52 01F9                                           __ptext44 05A2  
                                         __ptext36 0044                                           __ptext28 0438  
                                         __ptext53 0247                                           __ptext45 02FB  
                                         __ptext37 03BA                                           __ptext29 0192  
                                         __ptext54 015C                                           __ptext46 02D4  
                                         __ptext38 052B                                           __ptext55 0129  
                                         __ptext47 00A1                                           __ptext39 037F  
                                         __ptext56 003E                                           __ptext48 04C5  
                                         __ptext57 004E                                           __ptext49 01B6  
                                         __ptext58 0062              __end_of_Proximity_Baseline_Get_helper 0267  
           __size_of_Proximity_Baseline_Get_helper 0020                      _Proximity_Baseline_Get_helper 0247  
                        __end_of_MTOUCH_Initialize 005D                          ??_Sensor_RawSample_Update 0070  
              Sensor_Acq_ExecutePacket@ADCON0_temp 0079                Sensor_Acq_ExecutePacket@ADCON1_temp 007A  
                       __size_of_Sensor_setSampled 0007                                      __size_of_main 000D  
                   ??_MTOUCH_Proximity_Reading_Get 0075                    ??_MTOUCH_Proximity_Baseline_Get 007E  
                  __end_of_MTOUCH_Sensor_SampleAll 014B                  __end_of_Proximity_State_Activated 05A2  
                     Sensor_setScanFunction@sensor 0070                   __end_of_Proximity_Reading_Update 00AC  
                         ??_Sensor_Acq_ExecuteScan 0074                __end_of_MTOUCH_Proximity_ServiceAll 0047  
                      _MTOUCH_Proximity_ServiceAll 0044                  Sensor_Acq_ExecutePacket@GIE_state 007B  
                     ?_MTOUCH_Sensor_InitializeAll 0070                                         _INTCONbits 000B  
                                    _mtouch_sensor 004B                                           memcpy@d1 0078  
            __end_of_Proximity_Baseline_Initialize 0323             __size_of_Proximity_Baseline_Initialize 0028  
                    _Proximity_Baseline_Initialize 02FB                                           memcpy@s1 0070  
                       ?_Proximity_DefaultCallback 0070                                  __CFG_BOREN$NSLEEP 0000  
                                      _MTOUCH_Tick 0040                            __size_of_WDT_Initialize 0004  
                      __size_of_Sensor_Acquisition 0032                    __size_of_Sensor_setScanFunction 0012  
        __end_of_User_Proximity_Deactived_Callback 0192         __size_of_User_Proximity_Deactived_Callback 0012  
              ??_User_Proximity_Deactived_Callback 0071                 ?_User_Proximity_Deactived_Callback 0070  
                _User_Proximity_Deactived_Callback 0180                            ?_PIN_MANAGER_Initialize 0070  
                                __CFG_CLKOUTEN$OFF 0000                        ?_MTOUCH_Sensor_isCalibrated 0070  
                                MTOUCH_Random@seed 0023                       __end_of_Sensor_Sampled_Reset 0090  
                            _callback_notActivated 0041                                      __pstringtext1 01A4  
                      ??_Proximity_Baseline_Update 0070                      ??_MTOUCH_Sensor_InitializeAll 0078  
                           ??_MTOUCH_Sensor_Enable 0074                           ??_Sensor_DefaultCallback 0071  
                __end_of_Proximity_DefaultCallback 003D                         __size_of_MTOUCH_Initialize 0005  
                   __end_of_PIN_MANAGER_Initialize 0129                  MTOUCH_Proximity_Baseline_Get@name 0054  
                       ??_MTOUCH_Sensor_wasSampled 0074                      Proximity_Baseline_Update@prox 0074  
                   ?_Proximity_Baseline_Get_helper 0070  
